
;CodeVisionAVR C Compiler V3.12 Advanced
;(C) Copyright 1998-2014 Pavel Haiduc, HP InfoTech s.r.l.
;http://www.hpinfotech.com

;Build configuration    : Debug
;Chip type              : ATmega32
;Program type           : Application
;Clock frequency        : 16.000000 MHz
;Memory model           : Small
;Optimize for           : Size
;(s)printf features     : int, width
;(s)scanf features      : int, width
;External RAM size      : 0
;Data Stack size        : 512 byte(s)
;Heap size              : 0 byte(s)
;Promote 'char' to 'int': Yes
;'char' is unsigned     : Yes
;8 bit enums            : Yes
;Global 'const' stored in FLASH: Yes
;Enhanced function parameter passing: Yes
;Enhanced core instructions: On
;Automatic register allocation for global variables: On
;Smart register allocation: On

	#define _MODEL_SMALL_

	#pragma AVRPART ADMIN PART_NAME ATmega32
	#pragma AVRPART MEMORY PROG_FLASH 32768
	#pragma AVRPART MEMORY EEPROM 1024
	#pragma AVRPART MEMORY INT_SRAM SIZE 2048
	#pragma AVRPART MEMORY INT_SRAM START_ADDR 0x60

	#define CALL_SUPPORTED 1

	.LISTMAC
	.EQU UDRE=0x5
	.EQU RXC=0x7
	.EQU USR=0xB
	.EQU UDR=0xC
	.EQU SPSR=0xE
	.EQU SPDR=0xF
	.EQU EERE=0x0
	.EQU EEWE=0x1
	.EQU EEMWE=0x2
	.EQU EECR=0x1C
	.EQU EEDR=0x1D
	.EQU EEARL=0x1E
	.EQU EEARH=0x1F
	.EQU WDTCR=0x21
	.EQU MCUCR=0x35
	.EQU GICR=0x3B
	.EQU SPL=0x3D
	.EQU SPH=0x3E
	.EQU SREG=0x3F

	.DEF R0X0=R0
	.DEF R0X1=R1
	.DEF R0X2=R2
	.DEF R0X3=R3
	.DEF R0X4=R4
	.DEF R0X5=R5
	.DEF R0X6=R6
	.DEF R0X7=R7
	.DEF R0X8=R8
	.DEF R0X9=R9
	.DEF R0XA=R10
	.DEF R0XB=R11
	.DEF R0XC=R12
	.DEF R0XD=R13
	.DEF R0XE=R14
	.DEF R0XF=R15
	.DEF R0X10=R16
	.DEF R0X11=R17
	.DEF R0X12=R18
	.DEF R0X13=R19
	.DEF R0X14=R20
	.DEF R0X15=R21
	.DEF R0X16=R22
	.DEF R0X17=R23
	.DEF R0X18=R24
	.DEF R0X19=R25
	.DEF R0X1A=R26
	.DEF R0X1B=R27
	.DEF R0X1C=R28
	.DEF R0X1D=R29
	.DEF R0X1E=R30
	.DEF R0X1F=R31

	.EQU __SRAM_START=0x0060
	.EQU __SRAM_END=0x085F
	.EQU __DSTACK_SIZE=0x0200
	.EQU __HEAP_SIZE=0x0000
	.EQU __CLEAR_SRAM_SIZE=__SRAM_END-__SRAM_START+1

	.MACRO __CPD1N
	CPI  R30,LOW(@0)
	LDI  R26,HIGH(@0)
	CPC  R31,R26
	LDI  R26,BYTE3(@0)
	CPC  R22,R26
	LDI  R26,BYTE4(@0)
	CPC  R23,R26
	.ENDM

	.MACRO __CPD2N
	CPI  R26,LOW(@0)
	LDI  R30,HIGH(@0)
	CPC  R27,R30
	LDI  R30,BYTE3(@0)
	CPC  R24,R30
	LDI  R30,BYTE4(@0)
	CPC  R25,R30
	.ENDM

	.MACRO __CPWRR
	CP   R@0,R@2
	CPC  R@1,R@3
	.ENDM

	.MACRO __CPWRN
	CPI  R@0,LOW(@2)
	LDI  R30,HIGH(@2)
	CPC  R@1,R30
	.ENDM

	.MACRO __ADDB1MN
	SUBI R30,LOW(-@0-(@1))
	.ENDM

	.MACRO __ADDB2MN
	SUBI R26,LOW(-@0-(@1))
	.ENDM

	.MACRO __ADDW1MN
	SUBI R30,LOW(-@0-(@1))
	SBCI R31,HIGH(-@0-(@1))
	.ENDM

	.MACRO __ADDW2MN
	SUBI R26,LOW(-@0-(@1))
	SBCI R27,HIGH(-@0-(@1))
	.ENDM

	.MACRO __ADDW1FN
	SUBI R30,LOW(-2*@0-(@1))
	SBCI R31,HIGH(-2*@0-(@1))
	.ENDM

	.MACRO __ADDD1FN
	SUBI R30,LOW(-2*@0-(@1))
	SBCI R31,HIGH(-2*@0-(@1))
	SBCI R22,BYTE3(-2*@0-(@1))
	.ENDM

	.MACRO __ADDD1N
	SUBI R30,LOW(-@0)
	SBCI R31,HIGH(-@0)
	SBCI R22,BYTE3(-@0)
	SBCI R23,BYTE4(-@0)
	.ENDM

	.MACRO __ADDD2N
	SUBI R26,LOW(-@0)
	SBCI R27,HIGH(-@0)
	SBCI R24,BYTE3(-@0)
	SBCI R25,BYTE4(-@0)
	.ENDM

	.MACRO __SUBD1N
	SUBI R30,LOW(@0)
	SBCI R31,HIGH(@0)
	SBCI R22,BYTE3(@0)
	SBCI R23,BYTE4(@0)
	.ENDM

	.MACRO __SUBD2N
	SUBI R26,LOW(@0)
	SBCI R27,HIGH(@0)
	SBCI R24,BYTE3(@0)
	SBCI R25,BYTE4(@0)
	.ENDM

	.MACRO __ANDBMNN
	LDS  R30,@0+(@1)
	ANDI R30,LOW(@2)
	STS  @0+(@1),R30
	.ENDM

	.MACRO __ANDWMNN
	LDS  R30,@0+(@1)
	ANDI R30,LOW(@2)
	STS  @0+(@1),R30
	LDS  R30,@0+(@1)+1
	ANDI R30,HIGH(@2)
	STS  @0+(@1)+1,R30
	.ENDM

	.MACRO __ANDD1N
	ANDI R30,LOW(@0)
	ANDI R31,HIGH(@0)
	ANDI R22,BYTE3(@0)
	ANDI R23,BYTE4(@0)
	.ENDM

	.MACRO __ANDD2N
	ANDI R26,LOW(@0)
	ANDI R27,HIGH(@0)
	ANDI R24,BYTE3(@0)
	ANDI R25,BYTE4(@0)
	.ENDM

	.MACRO __ORBMNN
	LDS  R30,@0+(@1)
	ORI  R30,LOW(@2)
	STS  @0+(@1),R30
	.ENDM

	.MACRO __ORWMNN
	LDS  R30,@0+(@1)
	ORI  R30,LOW(@2)
	STS  @0+(@1),R30
	LDS  R30,@0+(@1)+1
	ORI  R30,HIGH(@2)
	STS  @0+(@1)+1,R30
	.ENDM

	.MACRO __ORD1N
	ORI  R30,LOW(@0)
	ORI  R31,HIGH(@0)
	ORI  R22,BYTE3(@0)
	ORI  R23,BYTE4(@0)
	.ENDM

	.MACRO __ORD2N
	ORI  R26,LOW(@0)
	ORI  R27,HIGH(@0)
	ORI  R24,BYTE3(@0)
	ORI  R25,BYTE4(@0)
	.ENDM

	.MACRO __DELAY_USB
	LDI  R24,LOW(@0)
__DELAY_USB_LOOP:
	DEC  R24
	BRNE __DELAY_USB_LOOP
	.ENDM

	.MACRO __DELAY_USW
	LDI  R24,LOW(@0)
	LDI  R25,HIGH(@0)
__DELAY_USW_LOOP:
	SBIW R24,1
	BRNE __DELAY_USW_LOOP
	.ENDM

	.MACRO __GETD1S
	LDD  R30,Y+@0
	LDD  R31,Y+@0+1
	LDD  R22,Y+@0+2
	LDD  R23,Y+@0+3
	.ENDM

	.MACRO __GETD2S
	LDD  R26,Y+@0
	LDD  R27,Y+@0+1
	LDD  R24,Y+@0+2
	LDD  R25,Y+@0+3
	.ENDM

	.MACRO __PUTD1S
	STD  Y+@0,R30
	STD  Y+@0+1,R31
	STD  Y+@0+2,R22
	STD  Y+@0+3,R23
	.ENDM

	.MACRO __PUTD2S
	STD  Y+@0,R26
	STD  Y+@0+1,R27
	STD  Y+@0+2,R24
	STD  Y+@0+3,R25
	.ENDM

	.MACRO __PUTDZ2
	STD  Z+@0,R26
	STD  Z+@0+1,R27
	STD  Z+@0+2,R24
	STD  Z+@0+3,R25
	.ENDM

	.MACRO __CLRD1S
	STD  Y+@0,R30
	STD  Y+@0+1,R30
	STD  Y+@0+2,R30
	STD  Y+@0+3,R30
	.ENDM

	.MACRO __POINTB1MN
	LDI  R30,LOW(@0+(@1))
	.ENDM

	.MACRO __POINTW1MN
	LDI  R30,LOW(@0+(@1))
	LDI  R31,HIGH(@0+(@1))
	.ENDM

	.MACRO __POINTD1M
	LDI  R30,LOW(@0)
	LDI  R31,HIGH(@0)
	LDI  R22,BYTE3(@0)
	LDI  R23,BYTE4(@0)
	.ENDM

	.MACRO __POINTW1FN
	LDI  R30,LOW(2*@0+(@1))
	LDI  R31,HIGH(2*@0+(@1))
	.ENDM

	.MACRO __POINTD1FN
	LDI  R30,LOW(2*@0+(@1))
	LDI  R31,HIGH(2*@0+(@1))
	LDI  R22,BYTE3(2*@0+(@1))
	LDI  R23,BYTE4(2*@0+(@1))
	.ENDM

	.MACRO __POINTB2MN
	LDI  R26,LOW(@0+(@1))
	.ENDM

	.MACRO __POINTW2MN
	LDI  R26,LOW(@0+(@1))
	LDI  R27,HIGH(@0+(@1))
	.ENDM

	.MACRO __POINTW2FN
	LDI  R26,LOW(2*@0+(@1))
	LDI  R27,HIGH(2*@0+(@1))
	.ENDM

	.MACRO __POINTD2FN
	LDI  R26,LOW(2*@0+(@1))
	LDI  R27,HIGH(2*@0+(@1))
	LDI  R24,BYTE3(2*@0+(@1))
	LDI  R25,BYTE4(2*@0+(@1))
	.ENDM

	.MACRO __POINTBRM
	LDI  R@0,LOW(@1)
	.ENDM

	.MACRO __POINTWRM
	LDI  R@0,LOW(@2)
	LDI  R@1,HIGH(@2)
	.ENDM

	.MACRO __POINTBRMN
	LDI  R@0,LOW(@1+(@2))
	.ENDM

	.MACRO __POINTWRMN
	LDI  R@0,LOW(@2+(@3))
	LDI  R@1,HIGH(@2+(@3))
	.ENDM

	.MACRO __POINTWRFN
	LDI  R@0,LOW(@2*2+(@3))
	LDI  R@1,HIGH(@2*2+(@3))
	.ENDM

	.MACRO __GETD1N
	LDI  R30,LOW(@0)
	LDI  R31,HIGH(@0)
	LDI  R22,BYTE3(@0)
	LDI  R23,BYTE4(@0)
	.ENDM

	.MACRO __GETD2N
	LDI  R26,LOW(@0)
	LDI  R27,HIGH(@0)
	LDI  R24,BYTE3(@0)
	LDI  R25,BYTE4(@0)
	.ENDM

	.MACRO __GETB1MN
	LDS  R30,@0+(@1)
	.ENDM

	.MACRO __GETB1HMN
	LDS  R31,@0+(@1)
	.ENDM

	.MACRO __GETW1MN
	LDS  R30,@0+(@1)
	LDS  R31,@0+(@1)+1
	.ENDM

	.MACRO __GETD1MN
	LDS  R30,@0+(@1)
	LDS  R31,@0+(@1)+1
	LDS  R22,@0+(@1)+2
	LDS  R23,@0+(@1)+3
	.ENDM

	.MACRO __GETBRMN
	LDS  R@0,@1+(@2)
	.ENDM

	.MACRO __GETWRMN
	LDS  R@0,@2+(@3)
	LDS  R@1,@2+(@3)+1
	.ENDM

	.MACRO __GETWRZ
	LDD  R@0,Z+@2
	LDD  R@1,Z+@2+1
	.ENDM

	.MACRO __GETD2Z
	LDD  R26,Z+@0
	LDD  R27,Z+@0+1
	LDD  R24,Z+@0+2
	LDD  R25,Z+@0+3
	.ENDM

	.MACRO __GETB2MN
	LDS  R26,@0+(@1)
	.ENDM

	.MACRO __GETW2MN
	LDS  R26,@0+(@1)
	LDS  R27,@0+(@1)+1
	.ENDM

	.MACRO __GETD2MN
	LDS  R26,@0+(@1)
	LDS  R27,@0+(@1)+1
	LDS  R24,@0+(@1)+2
	LDS  R25,@0+(@1)+3
	.ENDM

	.MACRO __PUTB1MN
	STS  @0+(@1),R30
	.ENDM

	.MACRO __PUTW1MN
	STS  @0+(@1),R30
	STS  @0+(@1)+1,R31
	.ENDM

	.MACRO __PUTD1MN
	STS  @0+(@1),R30
	STS  @0+(@1)+1,R31
	STS  @0+(@1)+2,R22
	STS  @0+(@1)+3,R23
	.ENDM

	.MACRO __PUTB1EN
	LDI  R26,LOW(@0+(@1))
	LDI  R27,HIGH(@0+(@1))
	CALL __EEPROMWRB
	.ENDM

	.MACRO __PUTW1EN
	LDI  R26,LOW(@0+(@1))
	LDI  R27,HIGH(@0+(@1))
	CALL __EEPROMWRW
	.ENDM

	.MACRO __PUTD1EN
	LDI  R26,LOW(@0+(@1))
	LDI  R27,HIGH(@0+(@1))
	CALL __EEPROMWRD
	.ENDM

	.MACRO __PUTBR0MN
	STS  @0+(@1),R0
	.ENDM

	.MACRO __PUTBMRN
	STS  @0+(@1),R@2
	.ENDM

	.MACRO __PUTWMRN
	STS  @0+(@1),R@2
	STS  @0+(@1)+1,R@3
	.ENDM

	.MACRO __PUTBZR
	STD  Z+@1,R@0
	.ENDM

	.MACRO __PUTWZR
	STD  Z+@2,R@0
	STD  Z+@2+1,R@1
	.ENDM

	.MACRO __GETW1R
	MOV  R30,R@0
	MOV  R31,R@1
	.ENDM

	.MACRO __GETW2R
	MOV  R26,R@0
	MOV  R27,R@1
	.ENDM

	.MACRO __GETWRN
	LDI  R@0,LOW(@2)
	LDI  R@1,HIGH(@2)
	.ENDM

	.MACRO __PUTW1R
	MOV  R@0,R30
	MOV  R@1,R31
	.ENDM

	.MACRO __PUTW2R
	MOV  R@0,R26
	MOV  R@1,R27
	.ENDM

	.MACRO __ADDWRN
	SUBI R@0,LOW(-@2)
	SBCI R@1,HIGH(-@2)
	.ENDM

	.MACRO __ADDWRR
	ADD  R@0,R@2
	ADC  R@1,R@3
	.ENDM

	.MACRO __SUBWRN
	SUBI R@0,LOW(@2)
	SBCI R@1,HIGH(@2)
	.ENDM

	.MACRO __SUBWRR
	SUB  R@0,R@2
	SBC  R@1,R@3
	.ENDM

	.MACRO __ANDWRN
	ANDI R@0,LOW(@2)
	ANDI R@1,HIGH(@2)
	.ENDM

	.MACRO __ANDWRR
	AND  R@0,R@2
	AND  R@1,R@3
	.ENDM

	.MACRO __ORWRN
	ORI  R@0,LOW(@2)
	ORI  R@1,HIGH(@2)
	.ENDM

	.MACRO __ORWRR
	OR   R@0,R@2
	OR   R@1,R@3
	.ENDM

	.MACRO __EORWRR
	EOR  R@0,R@2
	EOR  R@1,R@3
	.ENDM

	.MACRO __GETWRS
	LDD  R@0,Y+@2
	LDD  R@1,Y+@2+1
	.ENDM

	.MACRO __PUTBSR
	STD  Y+@1,R@0
	.ENDM

	.MACRO __PUTWSR
	STD  Y+@2,R@0
	STD  Y+@2+1,R@1
	.ENDM

	.MACRO __MOVEWRR
	MOV  R@0,R@2
	MOV  R@1,R@3
	.ENDM

	.MACRO __INWR
	IN   R@0,@2
	IN   R@1,@2+1
	.ENDM

	.MACRO __OUTWR
	OUT  @2+1,R@1
	OUT  @2,R@0
	.ENDM

	.MACRO __CALL1MN
	LDS  R30,@0+(@1)
	LDS  R31,@0+(@1)+1
	ICALL
	.ENDM

	.MACRO __CALL1FN
	LDI  R30,LOW(2*@0+(@1))
	LDI  R31,HIGH(2*@0+(@1))
	CALL __GETW1PF
	ICALL
	.ENDM

	.MACRO __CALL2EN
	PUSH R26
	PUSH R27
	LDI  R26,LOW(@0+(@1))
	LDI  R27,HIGH(@0+(@1))
	CALL __EEPROMRDW
	POP  R27
	POP  R26
	ICALL
	.ENDM

	.MACRO __CALL2EX
	SUBI R26,LOW(-@0)
	SBCI R27,HIGH(-@0)
	CALL __EEPROMRDD
	ICALL
	.ENDM

	.MACRO __GETW1STACK
	IN   R30,SPL
	IN   R31,SPH
	ADIW R30,@0+1
	LD   R0,Z+
	LD   R31,Z
	MOV  R30,R0
	.ENDM

	.MACRO __GETD1STACK
	IN   R30,SPL
	IN   R31,SPH
	ADIW R30,@0+1
	LD   R0,Z+
	LD   R1,Z+
	LD   R22,Z
	MOVW R30,R0
	.ENDM

	.MACRO __NBST
	BST  R@0,@1
	IN   R30,SREG
	LDI  R31,0x40
	EOR  R30,R31
	OUT  SREG,R30
	.ENDM


	.MACRO __PUTB1SN
	LDD  R26,Y+@0
	LDD  R27,Y+@0+1
	SUBI R26,LOW(-@1)
	SBCI R27,HIGH(-@1)
	ST   X,R30
	.ENDM

	.MACRO __PUTW1SN
	LDD  R26,Y+@0
	LDD  R27,Y+@0+1
	SUBI R26,LOW(-@1)
	SBCI R27,HIGH(-@1)
	ST   X+,R30
	ST   X,R31
	.ENDM

	.MACRO __PUTD1SN
	LDD  R26,Y+@0
	LDD  R27,Y+@0+1
	SUBI R26,LOW(-@1)
	SBCI R27,HIGH(-@1)
	CALL __PUTDP1
	.ENDM

	.MACRO __PUTB1SNS
	LDD  R26,Y+@0
	LDD  R27,Y+@0+1
	ADIW R26,@1
	ST   X,R30
	.ENDM

	.MACRO __PUTW1SNS
	LDD  R26,Y+@0
	LDD  R27,Y+@0+1
	ADIW R26,@1
	ST   X+,R30
	ST   X,R31
	.ENDM

	.MACRO __PUTD1SNS
	LDD  R26,Y+@0
	LDD  R27,Y+@0+1
	ADIW R26,@1
	CALL __PUTDP1
	.ENDM

	.MACRO __PUTB1PMN
	LDS  R26,@0
	LDS  R27,@0+1
	SUBI R26,LOW(-@1)
	SBCI R27,HIGH(-@1)
	ST   X,R30
	.ENDM

	.MACRO __PUTW1PMN
	LDS  R26,@0
	LDS  R27,@0+1
	SUBI R26,LOW(-@1)
	SBCI R27,HIGH(-@1)
	ST   X+,R30
	ST   X,R31
	.ENDM

	.MACRO __PUTD1PMN
	LDS  R26,@0
	LDS  R27,@0+1
	SUBI R26,LOW(-@1)
	SBCI R27,HIGH(-@1)
	CALL __PUTDP1
	.ENDM

	.MACRO __PUTB1PMNS
	LDS  R26,@0
	LDS  R27,@0+1
	ADIW R26,@1
	ST   X,R30
	.ENDM

	.MACRO __PUTW1PMNS
	LDS  R26,@0
	LDS  R27,@0+1
	ADIW R26,@1
	ST   X+,R30
	ST   X,R31
	.ENDM

	.MACRO __PUTD1PMNS
	LDS  R26,@0
	LDS  R27,@0+1
	ADIW R26,@1
	CALL __PUTDP1
	.ENDM

	.MACRO __PUTB1RN
	MOVW R26,R@0
	SUBI R26,LOW(-@1)
	SBCI R27,HIGH(-@1)
	ST   X,R30
	.ENDM

	.MACRO __PUTW1RN
	MOVW R26,R@0
	SUBI R26,LOW(-@1)
	SBCI R27,HIGH(-@1)
	ST   X+,R30
	ST   X,R31
	.ENDM

	.MACRO __PUTD1RN
	MOVW R26,R@0
	SUBI R26,LOW(-@1)
	SBCI R27,HIGH(-@1)
	CALL __PUTDP1
	.ENDM

	.MACRO __PUTB1RNS
	MOVW R26,R@0
	ADIW R26,@1
	ST   X,R30
	.ENDM

	.MACRO __PUTW1RNS
	MOVW R26,R@0
	ADIW R26,@1
	ST   X+,R30
	ST   X,R31
	.ENDM

	.MACRO __PUTD1RNS
	MOVW R26,R@0
	ADIW R26,@1
	CALL __PUTDP1
	.ENDM

	.MACRO __PUTB1RON
	MOV  R26,R@0
	MOV  R27,R@1
	SUBI R26,LOW(-@2)
	SBCI R27,HIGH(-@2)
	ST   X,R30
	.ENDM

	.MACRO __PUTW1RON
	MOV  R26,R@0
	MOV  R27,R@1
	SUBI R26,LOW(-@2)
	SBCI R27,HIGH(-@2)
	ST   X+,R30
	ST   X,R31
	.ENDM

	.MACRO __PUTD1RON
	MOV  R26,R@0
	MOV  R27,R@1
	SUBI R26,LOW(-@2)
	SBCI R27,HIGH(-@2)
	CALL __PUTDP1
	.ENDM

	.MACRO __PUTB1RONS
	MOV  R26,R@0
	MOV  R27,R@1
	ADIW R26,@2
	ST   X,R30
	.ENDM

	.MACRO __PUTW1RONS
	MOV  R26,R@0
	MOV  R27,R@1
	ADIW R26,@2
	ST   X+,R30
	ST   X,R31
	.ENDM

	.MACRO __PUTD1RONS
	MOV  R26,R@0
	MOV  R27,R@1
	ADIW R26,@2
	CALL __PUTDP1
	.ENDM


	.MACRO __GETB1SX
	MOVW R30,R28
	SUBI R30,LOW(-@0)
	SBCI R31,HIGH(-@0)
	LD   R30,Z
	.ENDM

	.MACRO __GETB1HSX
	MOVW R30,R28
	SUBI R30,LOW(-@0)
	SBCI R31,HIGH(-@0)
	LD   R31,Z
	.ENDM

	.MACRO __GETW1SX
	MOVW R30,R28
	SUBI R30,LOW(-@0)
	SBCI R31,HIGH(-@0)
	LD   R0,Z+
	LD   R31,Z
	MOV  R30,R0
	.ENDM

	.MACRO __GETD1SX
	MOVW R30,R28
	SUBI R30,LOW(-@0)
	SBCI R31,HIGH(-@0)
	LD   R0,Z+
	LD   R1,Z+
	LD   R22,Z+
	LD   R23,Z
	MOVW R30,R0
	.ENDM

	.MACRO __GETB2SX
	MOVW R26,R28
	SUBI R26,LOW(-@0)
	SBCI R27,HIGH(-@0)
	LD   R26,X
	.ENDM

	.MACRO __GETW2SX
	MOVW R26,R28
	SUBI R26,LOW(-@0)
	SBCI R27,HIGH(-@0)
	LD   R0,X+
	LD   R27,X
	MOV  R26,R0
	.ENDM

	.MACRO __GETD2SX
	MOVW R26,R28
	SUBI R26,LOW(-@0)
	SBCI R27,HIGH(-@0)
	LD   R0,X+
	LD   R1,X+
	LD   R24,X+
	LD   R25,X
	MOVW R26,R0
	.ENDM

	.MACRO __GETBRSX
	MOVW R30,R28
	SUBI R30,LOW(-@1)
	SBCI R31,HIGH(-@1)
	LD   R@0,Z
	.ENDM

	.MACRO __GETWRSX
	MOVW R30,R28
	SUBI R30,LOW(-@2)
	SBCI R31,HIGH(-@2)
	LD   R@0,Z+
	LD   R@1,Z
	.ENDM

	.MACRO __GETBRSX2
	MOVW R26,R28
	SUBI R26,LOW(-@1)
	SBCI R27,HIGH(-@1)
	LD   R@0,X
	.ENDM

	.MACRO __GETWRSX2
	MOVW R26,R28
	SUBI R26,LOW(-@2)
	SBCI R27,HIGH(-@2)
	LD   R@0,X+
	LD   R@1,X
	.ENDM

	.MACRO __LSLW8SX
	MOVW R30,R28
	SUBI R30,LOW(-@0)
	SBCI R31,HIGH(-@0)
	LD   R31,Z
	CLR  R30
	.ENDM

	.MACRO __PUTB1SX
	MOVW R26,R28
	SUBI R26,LOW(-@0)
	SBCI R27,HIGH(-@0)
	ST   X,R30
	.ENDM

	.MACRO __PUTW1SX
	MOVW R26,R28
	SUBI R26,LOW(-@0)
	SBCI R27,HIGH(-@0)
	ST   X+,R30
	ST   X,R31
	.ENDM

	.MACRO __PUTD1SX
	MOVW R26,R28
	SUBI R26,LOW(-@0)
	SBCI R27,HIGH(-@0)
	ST   X+,R30
	ST   X+,R31
	ST   X+,R22
	ST   X,R23
	.ENDM

	.MACRO __CLRW1SX
	MOVW R26,R28
	SUBI R26,LOW(-@0)
	SBCI R27,HIGH(-@0)
	ST   X+,R30
	ST   X,R30
	.ENDM

	.MACRO __CLRD1SX
	MOVW R26,R28
	SUBI R26,LOW(-@0)
	SBCI R27,HIGH(-@0)
	ST   X+,R30
	ST   X+,R30
	ST   X+,R30
	ST   X,R30
	.ENDM

	.MACRO __PUTB2SX
	MOVW R30,R28
	SUBI R30,LOW(-@0)
	SBCI R31,HIGH(-@0)
	ST   Z,R26
	.ENDM

	.MACRO __PUTW2SX
	MOVW R30,R28
	SUBI R30,LOW(-@0)
	SBCI R31,HIGH(-@0)
	ST   Z+,R26
	ST   Z,R27
	.ENDM

	.MACRO __PUTD2SX
	MOVW R30,R28
	SUBI R30,LOW(-@0)
	SBCI R31,HIGH(-@0)
	ST   Z+,R26
	ST   Z+,R27
	ST   Z+,R24
	ST   Z,R25
	.ENDM

	.MACRO __PUTBSRX
	MOVW R30,R28
	SUBI R30,LOW(-@1)
	SBCI R31,HIGH(-@1)
	ST   Z,R@0
	.ENDM

	.MACRO __PUTWSRX
	MOVW R30,R28
	SUBI R30,LOW(-@2)
	SBCI R31,HIGH(-@2)
	ST   Z+,R@0
	ST   Z,R@1
	.ENDM

	.MACRO __PUTB1SNX
	MOVW R26,R28
	SUBI R26,LOW(-@0)
	SBCI R27,HIGH(-@0)
	LD   R0,X+
	LD   R27,X
	MOV  R26,R0
	SUBI R26,LOW(-@1)
	SBCI R27,HIGH(-@1)
	ST   X,R30
	.ENDM

	.MACRO __PUTW1SNX
	MOVW R26,R28
	SUBI R26,LOW(-@0)
	SBCI R27,HIGH(-@0)
	LD   R0,X+
	LD   R27,X
	MOV  R26,R0
	SUBI R26,LOW(-@1)
	SBCI R27,HIGH(-@1)
	ST   X+,R30
	ST   X,R31
	.ENDM

	.MACRO __PUTD1SNX
	MOVW R26,R28
	SUBI R26,LOW(-@0)
	SBCI R27,HIGH(-@0)
	LD   R0,X+
	LD   R27,X
	MOV  R26,R0
	SUBI R26,LOW(-@1)
	SBCI R27,HIGH(-@1)
	ST   X+,R30
	ST   X+,R31
	ST   X+,R22
	ST   X,R23
	.ENDM

	.MACRO __MULBRR
	MULS R@0,R@1
	MOVW R30,R0
	.ENDM

	.MACRO __MULBRRU
	MUL  R@0,R@1
	MOVW R30,R0
	.ENDM

	.MACRO __MULBRR0
	MULS R@0,R@1
	.ENDM

	.MACRO __MULBRRU0
	MUL  R@0,R@1
	.ENDM

	.MACRO __MULBNWRU
	LDI  R26,@2
	MUL  R26,R@0
	MOVW R30,R0
	MUL  R26,R@1
	ADD  R31,R0
	.ENDM

	.CSEG
	.ORG 0x00

;START OF CODE MARKER
__START_OF_CODE:

;INTERRUPT VECTORS
	JMP  __RESET
	JMP  0x00
	JMP  0x00
	JMP  0x00
	JMP  0x00
	JMP  0x00
	JMP  0x00
	JMP  0x00
	JMP  0x00
	JMP  0x00
	JMP  0x00
	JMP  0x00
	JMP  0x00
	JMP  0x00
	JMP  0x00
	JMP  0x00
	JMP  0x00
	JMP  0x00
	JMP  0x00
	JMP  0x00
	JMP  0x00

_font5x7:
	.DB  0x5,0x7,0x20,0x60,0x0,0x0,0x0,0x0
	.DB  0x0,0x0,0x0,0x5F,0x0,0x0,0x0,0x7
	.DB  0x0,0x7,0x0,0x14,0x7F,0x14,0x7F,0x14
	.DB  0x24,0x2A,0x7F,0x2A,0x12,0x23,0x13,0x8
	.DB  0x64,0x62,0x36,0x49,0x55,0x22,0x50,0x0
	.DB  0x5,0x3,0x0,0x0,0x0,0x1C,0x22,0x41
	.DB  0x0,0x0,0x41,0x22,0x1C,0x0,0x8,0x2A
	.DB  0x1C,0x2A,0x8,0x8,0x8,0x3E,0x8,0x8
	.DB  0x0,0x50,0x30,0x0,0x0,0x8,0x8,0x8
	.DB  0x8,0x8,0x0,0x30,0x30,0x0,0x0,0x20
	.DB  0x10,0x8,0x4,0x2,0x3E,0x51,0x49,0x45
	.DB  0x3E,0x0,0x42,0x7F,0x40,0x0,0x42,0x61
	.DB  0x51,0x49,0x46,0x21,0x41,0x45,0x4B,0x31
	.DB  0x18,0x14,0x12,0x7F,0x10,0x27,0x45,0x45
	.DB  0x45,0x39,0x3C,0x4A,0x49,0x49,0x30,0x1
	.DB  0x71,0x9,0x5,0x3,0x36,0x49,0x49,0x49
	.DB  0x36,0x6,0x49,0x49,0x29,0x1E,0x0,0x36
	.DB  0x36,0x0,0x0,0x0,0x56,0x36,0x0,0x0
	.DB  0x0,0x8,0x14,0x22,0x41,0x14,0x14,0x14
	.DB  0x14,0x14,0x41,0x22,0x14,0x8,0x0,0x2
	.DB  0x1,0x51,0x9,0x6,0x32,0x49,0x79,0x41
	.DB  0x3E,0x7E,0x11,0x11,0x11,0x7E,0x7F,0x49
	.DB  0x49,0x49,0x36,0x3E,0x41,0x41,0x41,0x22
	.DB  0x7F,0x41,0x41,0x22,0x1C,0x7F,0x49,0x49
	.DB  0x49,0x41,0x7F,0x9,0x9,0x1,0x1,0x3E
	.DB  0x41,0x41,0x51,0x32,0x7F,0x8,0x8,0x8
	.DB  0x7F,0x0,0x41,0x7F,0x41,0x0,0x20,0x40
	.DB  0x41,0x3F,0x1,0x7F,0x8,0x14,0x22,0x41
	.DB  0x7F,0x40,0x40,0x40,0x40,0x7F,0x2,0x4
	.DB  0x2,0x7F,0x7F,0x4,0x8,0x10,0x7F,0x3E
	.DB  0x41,0x41,0x41,0x3E,0x7F,0x9,0x9,0x9
	.DB  0x6,0x3E,0x41,0x51,0x21,0x5E,0x7F,0x9
	.DB  0x19,0x29,0x46,0x46,0x49,0x49,0x49,0x31
	.DB  0x1,0x1,0x7F,0x1,0x1,0x3F,0x40,0x40
	.DB  0x40,0x3F,0x1F,0x20,0x40,0x20,0x1F,0x7F
	.DB  0x20,0x18,0x20,0x7F,0x63,0x14,0x8,0x14
	.DB  0x63,0x3,0x4,0x78,0x4,0x3,0x61,0x51
	.DB  0x49,0x45,0x43,0x0,0x0,0x7F,0x41,0x41
	.DB  0x2,0x4,0x8,0x10,0x20,0x41,0x41,0x7F
	.DB  0x0,0x0,0x4,0x2,0x1,0x2,0x4,0x40
	.DB  0x40,0x40,0x40,0x40,0x0,0x1,0x2,0x4
	.DB  0x0,0x20,0x54,0x54,0x54,0x78,0x7F,0x48
	.DB  0x44,0x44,0x38,0x38,0x44,0x44,0x44,0x20
	.DB  0x38,0x44,0x44,0x48,0x7F,0x38,0x54,0x54
	.DB  0x54,0x18,0x8,0x7E,0x9,0x1,0x2,0x8
	.DB  0x14,0x54,0x54,0x3C,0x7F,0x8,0x4,0x4
	.DB  0x78,0x0,0x44,0x7D,0x40,0x0,0x20,0x40
	.DB  0x44,0x3D,0x0,0x0,0x7F,0x10,0x28,0x44
	.DB  0x0,0x41,0x7F,0x40,0x0,0x7C,0x4,0x18
	.DB  0x4,0x78,0x7C,0x8,0x4,0x4,0x78,0x38
	.DB  0x44,0x44,0x44,0x38,0x7C,0x14,0x14,0x14
	.DB  0x8,0x8,0x14,0x14,0x18,0x7C,0x7C,0x8
	.DB  0x4,0x4,0x8,0x48,0x54,0x54,0x54,0x20
	.DB  0x4,0x3F,0x44,0x40,0x20,0x3C,0x40,0x40
	.DB  0x20,0x7C,0x1C,0x20,0x40,0x20,0x1C,0x3C
	.DB  0x40,0x30,0x40,0x3C,0x44,0x28,0x10,0x28
	.DB  0x44,0xC,0x50,0x50,0x50,0x3C,0x44,0x64
	.DB  0x54,0x4C,0x44,0x0,0x8,0x36,0x41,0x0
	.DB  0x0,0x0,0x7F,0x0,0x0,0x0,0x41,0x36
	.DB  0x8,0x0,0x2,0x1,0x2,0x4,0x2,0x7F
	.DB  0x41,0x41,0x41,0x7F
__glcd_mask:
	.DB  0x0,0x1,0x3,0x7,0xF,0x1F,0x3F,0x7F
	.DB  0xFF

_0x0:
	.DB  0x53,0x61,0x62,0x61,0x20,0x52,0x61,0x7A
	.DB  0x69,0x0,0x39,0x39,0x35,0x32,0x31,0x33
	.DB  0x31,0x36,0x0
_0x20C0060:
	.DB  0x1
_0x20C0000:
	.DB  0x2D,0x4E,0x41,0x4E,0x0,0x49,0x4E,0x46
	.DB  0x0

__GLOBAL_INI_TBL:
	.DW  0x0A
	.DW  _0x3
	.DW  _0x0*2

	.DW  0x09
	.DW  _0x3+10
	.DW  _0x0*2+10

	.DW  0x01
	.DW  __seed_G106
	.DW  _0x20C0060*2

_0xFFFFFFFF:
	.DW  0

#define __GLOBAL_INI_TBL_PRESENT 1

__RESET:
	CLI
	CLR  R30
	OUT  EECR,R30

;INTERRUPT VECTORS ARE PLACED
;AT THE START OF FLASH
	LDI  R31,1
	OUT  GICR,R31
	OUT  GICR,R30
	OUT  MCUCR,R30

;CLEAR R2-R14
	LDI  R24,(14-2)+1
	LDI  R26,2
	CLR  R27
__CLEAR_REG:
	ST   X+,R30
	DEC  R24
	BRNE __CLEAR_REG

;CLEAR SRAM
	LDI  R24,LOW(__CLEAR_SRAM_SIZE)
	LDI  R25,HIGH(__CLEAR_SRAM_SIZE)
	LDI  R26,__SRAM_START
__CLEAR_SRAM:
	ST   X+,R30
	SBIW R24,1
	BRNE __CLEAR_SRAM

;GLOBAL VARIABLES INITIALIZATION
	LDI  R30,LOW(__GLOBAL_INI_TBL*2)
	LDI  R31,HIGH(__GLOBAL_INI_TBL*2)
__GLOBAL_INI_NEXT:
	LPM  R24,Z+
	LPM  R25,Z+
	SBIW R24,0
	BREQ __GLOBAL_INI_END
	LPM  R26,Z+
	LPM  R27,Z+
	LPM  R0,Z+
	LPM  R1,Z+
	MOVW R22,R30
	MOVW R30,R0
__GLOBAL_INI_LOOP:
	LPM  R0,Z+
	ST   X+,R0
	SBIW R24,1
	BRNE __GLOBAL_INI_LOOP
	MOVW R30,R22
	RJMP __GLOBAL_INI_NEXT
__GLOBAL_INI_END:

;HARDWARE STACK POINTER INITIALIZATION
	LDI  R30,LOW(__SRAM_END-__HEAP_SIZE)
	OUT  SPL,R30
	LDI  R30,HIGH(__SRAM_END-__HEAP_SIZE)
	OUT  SPH,R30

;DATA STACK POINTER INITIALIZATION
	LDI  R28,LOW(__SRAM_START+__DSTACK_SIZE)
	LDI  R29,HIGH(__SRAM_START+__DSTACK_SIZE)

	JMP  _main

	.ESEG
	.ORG 0

	.DSEG
	.ORG 0x260

	.CSEG
;// Saba Razi
;// 99521316
;
;#include <mega32.h>
	#ifndef __SLEEP_DEFINED__
	#define __SLEEP_DEFINED__
	.EQU __se_bit=0x80
	.EQU __sm_mask=0x70
	.EQU __sm_powerdown=0x20
	.EQU __sm_powersave=0x30
	.EQU __sm_standby=0x60
	.EQU __sm_ext_standby=0x70
	.EQU __sm_adc_noise_red=0x10
	.SET power_ctrl_reg=mcucr
	#endif
;#include <delay.h>
;#include <glcd.h>
;#include <font5x7.h>
;
;void main(void) {
; 0000 0009 void main(void) {

	.CSEG
_main:
; .FSTART _main
; 0000 000A     int cx = 63;
; 0000 000B     int cy = 31;
; 0000 000C     int dir = 0;
; 0000 000D     int r = 4;
; 0000 000E 
; 0000 000F     GLCDINIT_t glcd_init_data;
; 0000 0010     glcd_init_data.font = font5x7;
	SBIW R28,8
	LDI  R30,LOW(4)
	STD  Y+6,R30
	LDI  R30,LOW(0)
	STD  Y+7,R30
;	cx -> R16,R17
;	cy -> R18,R19
;	dir -> R20,R21
;	r -> Y+6
;	glcd_init_data -> Y+0
	__GETWRN 16,17,63
	__GETWRN 18,19,31
	__GETWRN 20,21,0
	LDI  R30,LOW(_font5x7*2)
	LDI  R31,HIGH(_font5x7*2)
	ST   Y,R30
	STD  Y+1,R31
; 0000 0011     glcd_init(&glcd_init_data);
	MOVW R26,R28
	RCALL _glcd_init
; 0000 0012     glcd_clear();
	RCALL _glcd_clear
; 0000 0013     delay_ms(50);
	LDI  R26,LOW(50)
	LDI  R27,0
	CALL _delay_ms
; 0000 0014 
; 0000 0015     glcd_outtextxy(0, 0, "Saba Razi");
	CALL SUBOPT_0x0
	LDI  R30,LOW(0)
	ST   -Y,R30
	__POINTW2MN _0x3,0
	CALL _glcd_outtextxy
; 0000 0016     glcd_outtextxy(0, 53, "99521316");
	CALL SUBOPT_0x0
	LDI  R30,LOW(53)
	ST   -Y,R30
	__POINTW2MN _0x3,10
	CALL _glcd_outtextxy
; 0000 0017     delay_ms(2000);
	CALL SUBOPT_0x1
; 0000 0018     glcd_clear();
; 0000 0019 
; 0000 001A 
; 0000 001B     glcd_line(55, 63, 91, 63);
	CALL SUBOPT_0x2
	CALL SUBOPT_0x3
	LDI  R26,LOW(63)
	CALL _glcd_line
; 0000 001C     glcd_line(91, 63, 91, 32);
	CALL SUBOPT_0x3
	LDI  R30,LOW(63)
	ST   -Y,R30
	CALL SUBOPT_0x3
	LDI  R26,LOW(32)
	CALL _glcd_line
; 0000 001D     glcd_line(55, 63, 55, 32);
	CALL SUBOPT_0x2
	LDI  R30,LOW(55)
	LDI  R31,HIGH(55)
	CALL SUBOPT_0x4
; 0000 001E     glcd_line(55, 32, 45, 32);
	LDI  R30,LOW(55)
	LDI  R31,HIGH(55)
	ST   -Y,R31
	ST   -Y,R30
	LDI  R30,LOW(32)
	ST   -Y,R30
	LDI  R30,LOW(45)
	LDI  R31,HIGH(45)
	CALL SUBOPT_0x4
; 0000 001F     glcd_line(101, 32, 91, 32);
	LDI  R30,LOW(101)
	LDI  R31,HIGH(101)
	ST   -Y,R31
	ST   -Y,R30
	LDI  R30,LOW(32)
	ST   -Y,R30
	CALL SUBOPT_0x3
	LDI  R26,LOW(32)
	CALL _glcd_line
; 0000 0020     glcd_line(73, 0, 101, 32);
	CALL SUBOPT_0x5
	LDI  R30,LOW(101)
	LDI  R31,HIGH(101)
	CALL SUBOPT_0x4
; 0000 0021     glcd_line(73, 0, 59, 14);
	CALL SUBOPT_0x5
	CALL SUBOPT_0x6
	LDI  R26,LOW(14)
	CALL SUBOPT_0x7
; 0000 0022     glcd_line(52, 22, 45, 32);
	LDI  R30,LOW(22)
	ST   -Y,R30
	LDI  R30,LOW(45)
	LDI  R31,HIGH(45)
	CALL SUBOPT_0x4
; 0000 0023     glcd_line(52, 22, 52, 7);
	LDI  R30,LOW(52)
	LDI  R31,HIGH(52)
	ST   -Y,R31
	ST   -Y,R30
	LDI  R30,LOW(22)
	ST   -Y,R30
	LDI  R30,LOW(52)
	LDI  R31,HIGH(52)
	ST   -Y,R31
	ST   -Y,R30
	LDI  R26,LOW(7)
	CALL _glcd_line
; 0000 0024     glcd_line(59, 14, 59, 7);
	CALL SUBOPT_0x6
	LDI  R30,LOW(14)
	ST   -Y,R30
	CALL SUBOPT_0x6
	LDI  R26,LOW(7)
	CALL _glcd_line
; 0000 0025     glcd_line(59, 7, 62, 7);
	CALL SUBOPT_0x6
	CALL SUBOPT_0x8
	LDI  R26,LOW(7)
	CALL SUBOPT_0x7
; 0000 0026     glcd_line(52, 7, 49, 7);
	CALL SUBOPT_0x9
	LDI  R26,LOW(7)
	CALL _glcd_line
; 0000 0027     glcd_line(62, 7, 62, 3);
	LDI  R30,LOW(62)
	LDI  R31,HIGH(62)
	ST   -Y,R31
	ST   -Y,R30
	CALL SUBOPT_0x8
	CALL SUBOPT_0xA
; 0000 0028     glcd_line(49, 7, 49, 3);
	CALL SUBOPT_0x9
	CALL SUBOPT_0xA
; 0000 0029     glcd_line(49, 3, 62, 3);
	LDI  R30,LOW(3)
	ST   -Y,R30
	LDI  R30,LOW(62)
	LDI  R31,HIGH(62)
	ST   -Y,R31
	ST   -Y,R30
	LDI  R26,LOW(3)
	CALL _glcd_line
; 0000 002A     delay_ms(2000);
	CALL SUBOPT_0x1
; 0000 002B     glcd_clear();
; 0000 002C 
; 0000 002D     while (1) {
_0x4:
; 0000 002E         glcd_setcolor(0);
	LDI  R30,LOW(0)
	CALL SUBOPT_0xB
; 0000 002F         glcd_circle(cx, cy, 4);
; 0000 0030 
; 0000 0031         if (dir == 0) {
	MOV  R0,R20
	OR   R0,R21
	BRNE _0x7
; 0000 0032             cy = cy - r;
	LDD  R26,Y+6
	LDD  R27,Y+6+1
	__SUBWRR 18,19,26,27
; 0000 0033             cx = cx + r;
	CALL SUBOPT_0xC
; 0000 0034             if (cx + r >= 127) {
	BRLT _0x8
; 0000 0035                 dir = 3;
	__GETWRN 20,21,3
; 0000 0036             }
; 0000 0037             if(cy - r <= 0) {
_0x8:
	CALL SUBOPT_0xD
	BRLT _0x9
; 0000 0038                 dir = 1;
	__GETWRN 20,21,1
; 0000 0039             }
; 0000 003A         }
_0x9:
; 0000 003B         else if (dir == 1) {
	RJMP _0xA
_0x7:
	LDI  R30,LOW(1)
	LDI  R31,HIGH(1)
	CP   R30,R20
	CPC  R31,R21
	BRNE _0xB
; 0000 003C             cy = cy + r;
	LDD  R30,Y+6
	LDD  R31,Y+6+1
	__ADDWRR 18,19,30,31
; 0000 003D             cx = cx + r;
	CALL SUBOPT_0xC
; 0000 003E             if (cx + r >= 127) {
	BRLT _0xC
; 0000 003F                 dir = 2;
	__GETWRN 20,21,2
; 0000 0040             }
; 0000 0041             if(cy + r >= 63) {
_0xC:
	LDD  R26,Y+6
	LDD  R27,Y+6+1
	ADD  R26,R18
	ADC  R27,R19
	SBIW R26,63
	BRLT _0xD
; 0000 0042                 dir = 0;
	__GETWRN 20,21,0
; 0000 0043             }
; 0000 0044         }
_0xD:
; 0000 0045         else if (dir == 2) {
	RJMP _0xE
_0xB:
	LDI  R30,LOW(2)
	LDI  R31,HIGH(2)
	CP   R30,R20
	CPC  R31,R21
	BRNE _0xF
; 0000 0046             cy = cy + r;
	LDD  R30,Y+6
	LDD  R31,Y+6+1
	__ADDWRR 18,19,30,31
; 0000 0047             cx = cx - r;
	CALL SUBOPT_0xE
; 0000 0048             if (cx - r <= 0) {
	BRLT _0x10
; 0000 0049                 dir = 1;
	__GETWRN 20,21,1
; 0000 004A             }
; 0000 004B             if(cy + r >= 63) {
_0x10:
	LDD  R26,Y+6
	LDD  R27,Y+6+1
	ADD  R26,R18
	ADC  R27,R19
	SBIW R26,63
	BRLT _0x11
; 0000 004C                 dir = 3;
	__GETWRN 20,21,3
; 0000 004D             }
; 0000 004E         }
_0x11:
; 0000 004F         else {
	RJMP _0x12
_0xF:
; 0000 0050             cy = cy - r;
	LDD  R26,Y+6
	LDD  R27,Y+6+1
	__SUBWRR 18,19,26,27
; 0000 0051             cx = cx - r;
	CALL SUBOPT_0xE
; 0000 0052             if (cx - r <= 0) {
	BRLT _0x13
; 0000 0053                 dir = 0;
	__GETWRN 20,21,0
; 0000 0054             }
; 0000 0055             if (cy - r <= 0) {
_0x13:
	CALL SUBOPT_0xD
	BRLT _0x14
; 0000 0056                 dir = 2;
	__GETWRN 20,21,2
; 0000 0057             }
; 0000 0058         }
_0x14:
_0x12:
_0xE:
_0xA:
; 0000 0059 
; 0000 005A         glcd_setcolor(1);
	LDI  R30,LOW(1)
	CALL SUBOPT_0xB
; 0000 005B         glcd_circle(cx, cy, 4);
; 0000 005C         delay_ms(50);
	LDI  R26,LOW(50)
	LDI  R27,0
	CALL _delay_ms
; 0000 005D     }
	RJMP _0x4
; 0000 005E }
_0x15:
	RJMP _0x15
; .FEND

	.DSEG
_0x3:
	.BYTE 0x13
	#ifndef __SLEEP_DEFINED__
	#define __SLEEP_DEFINED__
	.EQU __se_bit=0x80
	.EQU __sm_mask=0x70
	.EQU __sm_powerdown=0x20
	.EQU __sm_powersave=0x30
	.EQU __sm_standby=0x60
	.EQU __sm_ext_standby=0x70
	.EQU __sm_adc_noise_red=0x10
	.SET power_ctrl_reg=mcucr
	#endif

	.CSEG
_ks0108_enable_G100:
; .FSTART _ks0108_enable_G100
	nop
	SBI  0x18,0
	nop
	RET
; .FEND
_ks0108_disable_G100:
; .FSTART _ks0108_disable_G100
	CBI  0x18,0
	CBI  0x18,4
	CBI  0x18,5
	CBI  0x18,6
	CBI  0x18,7
	CBI  0x15,0
	RET
; .FEND
_ks0108_rdbus_G100:
; .FSTART _ks0108_rdbus_G100
	ST   -Y,R17
	RCALL _ks0108_enable_G100
	IN   R17,25
	CBI  0x18,0
	MOV  R30,R17
	LD   R17,Y+
	RET
; .FEND
_ks0108_busy_G100:
; .FSTART _ks0108_busy_G100
	ST   -Y,R26
	ST   -Y,R17
	LDI  R30,LOW(0)
	OUT  0x1A,R30
	SBI  0x18,1
	CBI  0x18,2
	LDD  R30,Y+1
	LDI  R26,LOW(1)
	CALL __LSLB12
	MOV  R17,R30
	SBRS R17,0
	RJMP _0x2000003
	SBI  0x18,4
	RJMP _0x2000004
_0x2000003:
	CBI  0x18,4
_0x2000004:
	SBRS R17,1
	RJMP _0x2000005
	SBI  0x18,5
	RJMP _0x2000006
_0x2000005:
	CBI  0x18,5
_0x2000006:
	SBRS R17,2
	RJMP _0x2000007
	SBI  0x18,6
	RJMP _0x2000008
_0x2000007:
	CBI  0x18,6
_0x2000008:
	SBRS R17,3
	RJMP _0x2000009
	SBI  0x18,7
	RJMP _0x200000A
_0x2000009:
	CBI  0x18,7
_0x200000A:
	SBRS R17,4
	RJMP _0x200000B
	SBI  0x15,0
	RJMP _0x200000C
_0x200000B:
	CBI  0x15,0
_0x200000C:
_0x200000D:
	RCALL _ks0108_rdbus_G100
	ANDI R30,LOW(0x80)
	BRNE _0x200000D
	LDD  R17,Y+0
	RJMP _0x210000B
; .FEND
_ks0108_wrcmd_G100:
; .FSTART _ks0108_wrcmd_G100
	ST   -Y,R26
	LDD  R26,Y+1
	RCALL _ks0108_busy_G100
	CALL SUBOPT_0xF
_0x210000B:
	ADIW R28,2
	RET
; .FEND
_ks0108_setloc_G100:
; .FSTART _ks0108_setloc_G100
	__GETB1MN _ks0108_coord_G100,2
	ST   -Y,R30
	LDS  R30,_ks0108_coord_G100
	ANDI R30,LOW(0x3F)
	ORI  R30,0x40
	MOV  R26,R30
	RCALL _ks0108_wrcmd_G100
	__GETB1MN _ks0108_coord_G100,2
	ST   -Y,R30
	__GETB1MN _ks0108_coord_G100,3
	ORI  R30,LOW(0xB8)
	MOV  R26,R30
	RCALL _ks0108_wrcmd_G100
	RET
; .FEND
_ks0108_gotoxp_G100:
; .FSTART _ks0108_gotoxp_G100
	ST   -Y,R26
	LDD  R30,Y+1
	LDD  R31,Y+1+1
	STS  _ks0108_coord_G100,R30
	STS  _ks0108_coord_G100+1,R31
	LDD  R26,Y+1
	LDD  R27,Y+1+1
	LDI  R30,LOW(6)
	CALL __LSRW12
	__PUTB1MN _ks0108_coord_G100,2
	LD   R30,Y
	__PUTB1MN _ks0108_coord_G100,3
	RCALL _ks0108_setloc_G100
	RJMP _0x210000A
; .FEND
_ks0108_nextx_G100:
; .FSTART _ks0108_nextx_G100
	LDI  R26,LOW(_ks0108_coord_G100)
	LDI  R27,HIGH(_ks0108_coord_G100)
	LD   R30,X+
	LD   R31,X+
	ADIW R30,1
	ST   -X,R31
	ST   -X,R30
	CPI  R30,LOW(0x140)
	LDI  R26,HIGH(0x140)
	CPC  R31,R26
	BRLO _0x2000010
	LDI  R30,LOW(0)
	STS  _ks0108_coord_G100,R30
	STS  _ks0108_coord_G100+1,R30
_0x2000010:
	LDS  R30,_ks0108_coord_G100
	ANDI R30,LOW(0x3F)
	BRNE _0x2000011
	LDS  R30,_ks0108_coord_G100
	LDS  R31,_ks0108_coord_G100+1
	ST   -Y,R31
	ST   -Y,R30
	__GETB2MN _ks0108_coord_G100,3
	RCALL _ks0108_gotoxp_G100
_0x2000011:
	RET
; .FEND
_ks0108_wrdata_G100:
; .FSTART _ks0108_wrdata_G100
	ST   -Y,R26
	__GETB2MN _ks0108_coord_G100,2
	RCALL _ks0108_busy_G100
	SBI  0x18,2
	CALL SUBOPT_0xF
	ADIW R28,1
	RET
; .FEND
_ks0108_rddata_G100:
; .FSTART _ks0108_rddata_G100
	__GETB2MN _ks0108_coord_G100,2
	RCALL _ks0108_busy_G100
	LDI  R30,LOW(0)
	OUT  0x1A,R30
	SBI  0x18,1
	SBI  0x18,2
	RCALL _ks0108_rdbus_G100
	RET
; .FEND
_ks0108_rdbyte_G100:
; .FSTART _ks0108_rdbyte_G100
	CALL SUBOPT_0x10
	CALL SUBOPT_0x11
	RCALL _ks0108_rddata_G100
	RCALL _ks0108_setloc_G100
	RCALL _ks0108_rddata_G100
	RJMP _0x210000A
; .FEND
_glcd_init:
; .FSTART _glcd_init
	ST   -Y,R27
	ST   -Y,R26
	ST   -Y,R17
	SBI  0x17,0
	SBI  0x17,1
	SBI  0x17,2
	SBI  0x17,3
	SBI  0x18,3
	SBI  0x17,4
	SBI  0x17,5
	SBI  0x17,6
	SBI  0x17,7
	SBI  0x14,0
	RCALL _ks0108_disable_G100
	CBI  0x18,3
	LDI  R26,LOW(100)
	LDI  R27,0
	CALL _delay_ms
	SBI  0x18,3
	LDI  R17,LOW(0)
_0x2000012:
	CPI  R17,5
	BRSH _0x2000014
	ST   -Y,R17
	LDI  R26,LOW(63)
	RCALL _ks0108_wrcmd_G100
	ST   -Y,R17
	INC  R17
	LDI  R26,LOW(192)
	RCALL _ks0108_wrcmd_G100
	RJMP _0x2000012
_0x2000014:
	LDI  R30,LOW(1)
	STS  _glcd_state,R30
	LDI  R30,LOW(0)
	__PUTB1MN _glcd_state,1
	LDD  R30,Y+1
	LDD  R31,Y+1+1
	SBIW R30,0
	BREQ _0x2000015
	LDD  R26,Y+1
	LDD  R27,Y+1+1
	CALL __GETW1P
	__PUTW1MN _glcd_state,5
	ADIW R26,2
	CALL __GETW1P
	__PUTW1MN _glcd_state,29
	LDD  R26,Y+1
	LDD  R27,Y+1+1
	ADIW R26,4
	CALL __GETW1P
	RJMP _0x20000B2
_0x2000015:
	LDI  R30,LOW(0)
	LDI  R31,HIGH(0)
	__PUTW1MN _glcd_state,5
	__PUTW1MN _glcd_state,29
_0x20000B2:
	__PUTW1MN _glcd_state,31
	LDI  R30,LOW(1)
	__PUTB1MN _glcd_state,7
	__PUTB1MN _glcd_state,8
	__PUTB1MN _glcd_state,9
	LDI  R30,LOW(255)
	__PUTB1MN _glcd_state,10
	LDI  R30,LOW(1)
	__PUTB1MN _glcd_state,20
	__POINTW1MN _glcd_state,21
	ST   -Y,R31
	ST   -Y,R30
	LDI  R30,LOW(255)
	ST   -Y,R30
	LDI  R26,LOW(8)
	LDI  R27,0
	CALL _memset
	RCALL _glcd_clear
	LDI  R30,LOW(1)
	LDD  R17,Y+0
	RJMP _0x210000A
; .FEND
_glcd_clear:
; .FSTART _glcd_clear
	CALL __SAVELOCR4
	LDI  R19,0
	LDI  R18,0
	__GETB1MN _glcd_state,1
	CPI  R30,0
	BREQ _0x200001B
	LDI  R19,LOW(255)
_0x200001B:
_0x200001C:
	CPI  R18,8
	BRSH _0x200001E
	CALL SUBOPT_0x0
	MOV  R26,R18
	SUBI R18,-1
	RCALL _ks0108_gotoxp_G100
	__GETWRN 16,17,0
_0x200001F:
	MOVW R26,R16
	__ADDWRN 16,17,1
	CPI  R26,LOW(0x140)
	LDI  R30,HIGH(0x140)
	CPC  R27,R30
	BRSH _0x2000021
	MOV  R26,R19
	CALL SUBOPT_0x12
	RJMP _0x200001F
_0x2000021:
	RJMP _0x200001C
_0x200001E:
	CALL SUBOPT_0x0
	LDI  R26,LOW(0)
	RCALL _ks0108_gotoxp_G100
	CALL SUBOPT_0x0
	LDI  R26,LOW(0)
	RCALL _glcd_moveto
	CALL __LOADLOCR4
	ADIW R28,4
	RET
; .FEND
_glcd_putpixel:
; .FSTART _glcd_putpixel
	ST   -Y,R26
	ST   -Y,R17
	ST   -Y,R16
	LDD  R26,Y+4
	LDD  R27,Y+4+1
	CPI  R26,LOW(0x140)
	LDI  R30,HIGH(0x140)
	CPC  R27,R30
	BRSH _0x2000023
	LDD  R26,Y+3
	CPI  R26,LOW(0x40)
	BRLO _0x2000022
_0x2000023:
	LDD  R17,Y+1
	LDD  R16,Y+0
	RJMP _0x2100007
_0x2000022:
	LDD  R30,Y+4
	LDD  R31,Y+4+1
	ST   -Y,R31
	ST   -Y,R30
	LDD  R26,Y+5
	RCALL _ks0108_rdbyte_G100
	MOV  R17,R30
	RCALL _ks0108_setloc_G100
	LDD  R30,Y+3
	ANDI R30,LOW(0x7)
	LDI  R26,LOW(1)
	CALL __LSLB12
	MOV  R16,R30
	LDD  R30,Y+2
	CPI  R30,0
	BREQ _0x2000025
	OR   R17,R16
	RJMP _0x2000026
_0x2000025:
	MOV  R30,R16
	COM  R30
	AND  R17,R30
_0x2000026:
	MOV  R26,R17
	RCALL _ks0108_wrdata_G100
	LDD  R17,Y+1
	LDD  R16,Y+0
	RJMP _0x2100007
; .FEND
_glcd_getpixel:
; .FSTART _glcd_getpixel
	ST   -Y,R26
	LDD  R26,Y+1
	LDD  R27,Y+1+1
	CPI  R26,LOW(0x140)
	LDI  R30,HIGH(0x140)
	CPC  R27,R30
	BRSH _0x2000028
	LD   R26,Y
	CPI  R26,LOW(0x40)
	BRLO _0x2000027
_0x2000028:
	LDI  R30,LOW(0)
	RJMP _0x210000A
_0x2000027:
	LDD  R30,Y+1
	LDD  R31,Y+1+1
	ST   -Y,R31
	ST   -Y,R30
	LDD  R26,Y+2
	RCALL _ks0108_rdbyte_G100
	MOV  R1,R30
	LD   R30,Y
	ANDI R30,LOW(0x7)
	LDI  R26,LOW(1)
	CALL __LSLB12
	AND  R30,R1
	BREQ _0x200002A
	LDI  R30,LOW(1)
	RJMP _0x200002B
_0x200002A:
	LDI  R30,LOW(0)
_0x200002B:
_0x210000A:
	ADIW R28,3
	RET
; .FEND
_ks0108_wrmasked_G100:
; .FSTART _ks0108_wrmasked_G100
	ST   -Y,R26
	ST   -Y,R17
	LDD  R30,Y+5
	LDD  R31,Y+5+1
	ST   -Y,R31
	ST   -Y,R30
	LDD  R26,Y+6
	RCALL _ks0108_rdbyte_G100
	MOV  R17,R30
	RCALL _ks0108_setloc_G100
	LDD  R30,Y+1
	CPI  R30,LOW(0x7)
	BREQ _0x2000031
	CPI  R30,LOW(0x8)
	BRNE _0x2000032
_0x2000031:
	LDD  R30,Y+3
	ST   -Y,R30
	LDD  R26,Y+2
	CALL _glcd_mappixcolor1bit
	STD  Y+3,R30
	RJMP _0x2000033
_0x2000032:
	CPI  R30,LOW(0x3)
	BRNE _0x2000035
	LDD  R30,Y+3
	COM  R30
	STD  Y+3,R30
	RJMP _0x2000036
_0x2000035:
	CPI  R30,0
	BRNE _0x2000037
_0x2000036:
_0x2000033:
	LDD  R30,Y+2
	COM  R30
	AND  R17,R30
	RJMP _0x2000038
_0x2000037:
	CPI  R30,LOW(0x2)
	BRNE _0x2000039
_0x2000038:
	LDD  R30,Y+2
	LDD  R26,Y+3
	AND  R30,R26
	OR   R17,R30
	RJMP _0x200002F
_0x2000039:
	CPI  R30,LOW(0x1)
	BRNE _0x200003A
	LDD  R30,Y+2
	LDD  R26,Y+3
	AND  R30,R26
	EOR  R17,R30
	RJMP _0x200002F
_0x200003A:
	CPI  R30,LOW(0x4)
	BRNE _0x200002F
	LDD  R30,Y+2
	COM  R30
	LDD  R26,Y+3
	OR   R30,R26
	AND  R17,R30
_0x200002F:
	MOV  R26,R17
	CALL SUBOPT_0x12
	LDD  R17,Y+0
	ADIW R28,7
	RET
; .FEND
_glcd_block:
; .FSTART _glcd_block
	ST   -Y,R26
	SBIW R28,6
	CALL __SAVELOCR6
	LDD  R26,Y+20
	LDD  R27,Y+20+1
	CPI  R26,LOW(0x140)
	LDI  R30,HIGH(0x140)
	CPC  R27,R30
	BRSH _0x200003D
	LDD  R26,Y+19
	CPI  R26,LOW(0x40)
	BRSH _0x200003D
	LDD  R26,Y+17
	LDD  R27,Y+17+1
	SBIW R26,0
	BREQ _0x200003D
	LDD  R26,Y+16
	CPI  R26,LOW(0x0)
	BRNE _0x200003C
_0x200003D:
	RJMP _0x2100009
_0x200003C:
	LDD  R30,Y+17
	LDD  R31,Y+17+1
	STD  Y+8,R30
	STD  Y+8+1,R31
	LDD  R30,Y+17
	LDD  R31,Y+17+1
	LDD  R26,Y+20
	LDD  R27,Y+20+1
	ADD  R26,R30
	ADC  R27,R31
	CPI  R26,LOW(0x141)
	LDI  R30,HIGH(0x141)
	CPC  R27,R30
	BRLO _0x200003F
	LDD  R26,Y+20
	LDD  R27,Y+20+1
	LDI  R30,LOW(320)
	LDI  R31,HIGH(320)
	SUB  R30,R26
	SBC  R31,R27
	STD  Y+17,R30
	STD  Y+17+1,R31
_0x200003F:
	LDD  R20,Y+16
	LDD  R26,Y+19
	CLR  R27
	LDD  R30,Y+16
	LDI  R31,0
	ADD  R26,R30
	ADC  R27,R31
	CPI  R26,LOW(0x41)
	LDI  R30,HIGH(0x41)
	CPC  R27,R30
	BRLO _0x2000040
	LDD  R26,Y+19
	LDI  R30,LOW(64)
	SUB  R30,R26
	STD  Y+16,R30
_0x2000040:
	LDD  R26,Y+12
	CPI  R26,LOW(0x6)
	BREQ PC+2
	RJMP _0x2000041
	LDD  R30,Y+15
	CPI  R30,LOW(0x1)
	BRNE _0x2000045
	RJMP _0x2100009
_0x2000045:
	CPI  R30,LOW(0x3)
	BRNE _0x2000048
	__GETW1MN _glcd_state,31
	SBIW R30,0
	BRNE _0x2000047
	RJMP _0x2100009
_0x2000047:
_0x2000048:
	__GETWRS 18,19,8
	LDD  R30,Y+16
	LSR  R30
	LSR  R30
	LSR  R30
	MOV  R21,R30
	MOV  R30,R20
	ANDI R30,LOW(0x7)
	BRNE _0x200004A
	LDD  R26,Y+16
	CP   R20,R26
	BREQ _0x2000049
_0x200004A:
	MOV  R30,R21
	MOVW R26,R18
	LDI  R31,0
	CALL __MULW12U
	CALL SUBOPT_0x13
	LSR  R20
	LSR  R20
	LSR  R20
	__PUTBSR 21,11
_0x200004C:
	LDD  R26,Y+11
	SUBI R26,-LOW(1)
	STD  Y+11,R26
	SUBI R26,LOW(1)
	CP   R20,R26
	BRLO _0x200004E
	MOVW R16,R18
_0x200004F:
	MOVW R30,R16
	__SUBWRN 16,17,1
	SBIW R30,0
	BREQ _0x2000051
	CALL SUBOPT_0x14
	RJMP _0x200004F
_0x2000051:
	RJMP _0x200004C
_0x200004E:
_0x2000049:
	LDD  R26,Y+17
	LDD  R27,Y+17+1
	CP   R18,R26
	CPC  R19,R27
	BREQ _0x2000052
	LDD  R30,Y+17
	LDD  R31,Y+17+1
	CALL SUBOPT_0x13
	LDD  R30,Y+16
	ANDI R30,LOW(0x7)
	BREQ _0x2000053
	SUBI R21,-LOW(1)
_0x2000053:
	LDI  R20,LOW(0)
_0x2000054:
	PUSH R20
	SUBI R20,-1
	MOV  R30,R21
	POP  R26
	CP   R26,R30
	BRSH _0x2000056
	__GETWRS 16,17,17
_0x2000057:
	PUSH R17
	PUSH R16
	__ADDWRN 16,17,1
	MOVW R30,R18
	POP  R26
	POP  R27
	CP   R26,R30
	CPC  R27,R31
	BRSH _0x2000059
	CALL SUBOPT_0x14
	RJMP _0x2000057
_0x2000059:
	LDD  R30,Y+17
	LDD  R31,Y+17+1
	LDD  R26,Y+6
	LDD  R27,Y+6+1
	ADD  R30,R26
	ADC  R31,R27
	STD  Y+6,R30
	STD  Y+6+1,R31
	RJMP _0x2000054
_0x2000056:
_0x2000052:
_0x2000041:
	LDD  R30,Y+19
	ANDI R30,LOW(0x7)
	MOV  R21,R30
_0x200005A:
	LDD  R30,Y+16
	CPI  R30,0
	BRNE PC+2
	RJMP _0x200005C
	LDD  R30,Y+13
	LDD  R31,Y+13+1
	STD  Y+6,R30
	STD  Y+6+1,R31
	__GETWRN 16,17,0
	__GETWRS 18,19,20
	CPI  R21,0
	BREQ PC+2
	RJMP _0x200005D
	LDD  R26,Y+16
	CPI  R26,LOW(0x8)
	BRSH PC+2
	RJMP _0x200005E
	LDD  R30,Y+12
	CPI  R30,0
	BREQ _0x2000063
	CPI  R30,LOW(0x3)
	BRNE _0x2000064
_0x2000063:
	RJMP _0x2000065
_0x2000064:
	CPI  R30,LOW(0x7)
	BRNE _0x2000066
_0x2000065:
	RJMP _0x2000067
_0x2000066:
	CPI  R30,LOW(0x8)
	BRNE _0x2000068
_0x2000067:
	RJMP _0x2000069
_0x2000068:
	CPI  R30,LOW(0x6)
	BRNE _0x200006A
_0x2000069:
	RJMP _0x200006B
_0x200006A:
	CPI  R30,LOW(0x9)
	BRNE _0x200006C
_0x200006B:
	RJMP _0x200006D
_0x200006C:
	CPI  R30,LOW(0xA)
	BRNE _0x2000061
_0x200006D:
	ST   -Y,R19
	ST   -Y,R18
	LDD  R30,Y+21
	CALL SUBOPT_0x11
_0x2000061:
_0x200006F:
	PUSH R17
	PUSH R16
	CALL SUBOPT_0x15
	POP  R26
	POP  R27
	CP   R26,R30
	CPC  R27,R31
	BRSH _0x2000071
	LDD  R26,Y+12
	CPI  R26,LOW(0x6)
	BRNE _0x2000072
	RCALL _ks0108_rddata_G100
	RCALL _ks0108_setloc_G100
	CALL SUBOPT_0x16
	ST   -Y,R31
	ST   -Y,R30
	RCALL _ks0108_rddata_G100
	MOV  R26,R30
	CALL _glcd_writemem
	RCALL _ks0108_nextx_G100
	RJMP _0x2000073
_0x2000072:
	LDD  R30,Y+12
	CPI  R30,LOW(0x9)
	BRNE _0x2000077
	LDI  R30,LOW(0)
	STD  Y+11,R30
	RJMP _0x2000078
_0x2000077:
	CPI  R30,LOW(0xA)
	BRNE _0x2000076
	LDI  R30,LOW(255)
	STD  Y+11,R30
	RJMP _0x2000078
_0x2000076:
	CALL SUBOPT_0x16
	CALL SUBOPT_0x17
	STD  Y+11,R30
	LDD  R30,Y+12
	CPI  R30,LOW(0x7)
	BREQ _0x200007F
	CPI  R30,LOW(0x8)
	BRNE _0x2000080
_0x200007F:
_0x2000078:
	CALL SUBOPT_0x18
	STD  Y+11,R30
	RJMP _0x2000081
_0x2000080:
	CPI  R30,LOW(0x3)
	BRNE _0x2000083
	LDD  R30,Y+11
	COM  R30
	STD  Y+11,R30
	RJMP _0x2000084
_0x2000083:
	CPI  R30,0
	BRNE _0x2000086
_0x2000084:
_0x2000081:
	LDD  R26,Y+11
	CALL SUBOPT_0x12
	RJMP _0x200007D
_0x2000086:
	CALL SUBOPT_0x19
	CALL SUBOPT_0x1A
	LDI  R30,LOW(255)
	CALL SUBOPT_0x1B
_0x200007D:
_0x2000073:
	RJMP _0x200006F
_0x2000071:
	LDD  R30,Y+19
	SUBI R30,-LOW(8)
	STD  Y+19,R30
	LDD  R30,Y+16
	SUBI R30,LOW(8)
	STD  Y+16,R30
	RJMP _0x2000087
_0x200005E:
	LDD  R30,Y+16
	STD  Y+11,R30
	LDI  R20,LOW(0)
	LDI  R30,LOW(0)
	STD  Y+16,R30
	RJMP _0x2000088
_0x200005D:
	MOV  R30,R21
	LDD  R26,Y+16
	ADD  R26,R30
	CPI  R26,LOW(0x9)
	BRSH _0x2000089
	LDD  R20,Y+16
	LDI  R30,LOW(0)
	STD  Y+16,R30
	RJMP _0x200008A
_0x2000089:
	LDI  R30,LOW(8)
	SUB  R30,R21
	MOV  R20,R30
_0x200008A:
	ST   -Y,R21
	MOV  R26,R20
	CALL _glcd_getmask
	STD  Y+10,R30
	LDD  R30,Y+12
	CPI  R30,LOW(0x6)
	BRNE _0x200008E
_0x200008F:
	PUSH R17
	PUSH R16
	CALL SUBOPT_0x15
	POP  R26
	POP  R27
	CP   R26,R30
	CPC  R27,R31
	BRSH _0x2000091
	CALL SUBOPT_0x19
	LDD  R26,Y+21
	RCALL _ks0108_rdbyte_G100
	LDD  R26,Y+10
	AND  R30,R26
	MOV  R26,R30
	MOV  R30,R21
	CALL __LSRB12
	CALL SUBOPT_0x1C
	MOV  R30,R21
	LDD  R26,Y+10
	CALL __LSRB12
	CALL SUBOPT_0x1D
	ST   -Y,R31
	ST   -Y,R30
	LDD  R26,Y+14
	CALL _glcd_writemem
	RJMP _0x200008F
_0x2000091:
	RJMP _0x200008D
_0x200008E:
	CPI  R30,LOW(0x9)
	BRNE _0x2000092
	LDI  R30,LOW(0)
	RJMP _0x20000B3
_0x2000092:
	CPI  R30,LOW(0xA)
	BRNE _0x2000099
	LDI  R30,LOW(255)
_0x20000B3:
	STD  Y+11,R30
	CALL SUBOPT_0x18
	MOV  R26,R30
	MOV  R30,R21
	CALL __LSLB12
	STD  Y+11,R30
_0x2000096:
	PUSH R17
	PUSH R16
	CALL SUBOPT_0x15
	POP  R26
	POP  R27
	CP   R26,R30
	CPC  R27,R31
	BRSH _0x2000098
	CALL SUBOPT_0x19
	CALL SUBOPT_0x1A
	LDD  R30,Y+14
	ST   -Y,R30
	LDI  R26,LOW(0)
	RCALL _ks0108_wrmasked_G100
	RJMP _0x2000096
_0x2000098:
	RJMP _0x200008D
_0x2000099:
_0x200009A:
	PUSH R17
	PUSH R16
	CALL SUBOPT_0x15
	POP  R26
	POP  R27
	CP   R26,R30
	CPC  R27,R31
	BRSH _0x200009C
	CALL SUBOPT_0x19
	CALL SUBOPT_0x1E
	MOV  R26,R30
	MOV  R30,R21
	CALL __LSLB12
	ST   -Y,R30
	LDD  R30,Y+14
	CALL SUBOPT_0x1B
	RJMP _0x200009A
_0x200009C:
_0x200008D:
	LDD  R30,Y+16
	CPI  R30,0
	BRNE _0x200009D
	RJMP _0x200005C
_0x200009D:
	LDD  R26,Y+16
	CPI  R26,LOW(0x8)
	BRSH _0x200009E
	LDD  R30,Y+16
	SUB  R30,R20
	STD  Y+11,R30
	LDI  R30,LOW(0)
	RJMP _0x20000B4
_0x200009E:
	__PUTBSR 21,11
	LDD  R30,Y+16
	SUBI R30,LOW(8)
_0x20000B4:
	STD  Y+16,R30
	__GETWRN 16,17,0
	LDD  R30,Y+19
	SUBI R30,-LOW(8)
	STD  Y+19,R30
	LDI  R30,LOW(8)
	SUB  R30,R21
	MOV  R20,R30
	__GETWRS 18,19,20
	LDD  R30,Y+13
	LDD  R31,Y+13+1
	STD  Y+6,R30
	STD  Y+6+1,R31
_0x2000088:
	LDD  R30,Y+11
	LDI  R31,0
	SUBI R30,LOW(-__glcd_mask*2)
	SBCI R31,HIGH(-__glcd_mask*2)
	LPM  R0,Z
	STD  Y+10,R0
	LDD  R30,Y+12
	CPI  R30,LOW(0x6)
	BRNE _0x20000A3
_0x20000A4:
	PUSH R17
	PUSH R16
	CALL SUBOPT_0x15
	POP  R26
	POP  R27
	CP   R26,R30
	CPC  R27,R31
	BRSH _0x20000A6
	CALL SUBOPT_0x19
	LDD  R26,Y+21
	RCALL _ks0108_rdbyte_G100
	LDD  R26,Y+10
	AND  R30,R26
	MOV  R26,R30
	MOV  R30,R20
	CALL __LSLB12
	CALL SUBOPT_0x1C
	MOV  R30,R20
	LDD  R26,Y+10
	CALL __LSLB12
	CALL SUBOPT_0x1D
	ST   -Y,R31
	ST   -Y,R30
	LDD  R26,Y+14
	CALL _glcd_writemem
	RJMP _0x20000A4
_0x20000A6:
	RJMP _0x20000A2
_0x20000A3:
	CPI  R30,LOW(0x9)
	BRNE _0x20000A7
	LDI  R30,LOW(0)
	RJMP _0x20000B5
_0x20000A7:
	CPI  R30,LOW(0xA)
	BRNE _0x20000AE
	LDI  R30,LOW(255)
_0x20000B5:
	STD  Y+11,R30
	CALL SUBOPT_0x18
	MOV  R26,R30
	MOV  R30,R20
	CALL __LSRB12
	STD  Y+11,R30
_0x20000AB:
	PUSH R17
	PUSH R16
	CALL SUBOPT_0x15
	POP  R26
	POP  R27
	CP   R26,R30
	CPC  R27,R31
	BRSH _0x20000AD
	CALL SUBOPT_0x19
	CALL SUBOPT_0x1A
	LDD  R30,Y+14
	ST   -Y,R30
	LDI  R26,LOW(0)
	RCALL _ks0108_wrmasked_G100
	RJMP _0x20000AB
_0x20000AD:
	RJMP _0x20000A2
_0x20000AE:
_0x20000AF:
	PUSH R17
	PUSH R16
	CALL SUBOPT_0x15
	POP  R26
	POP  R27
	CP   R26,R30
	CPC  R27,R31
	BRSH _0x20000B1
	CALL SUBOPT_0x19
	CALL SUBOPT_0x1E
	MOV  R26,R30
	MOV  R30,R20
	CALL __LSRB12
	ST   -Y,R30
	LDD  R30,Y+14
	CALL SUBOPT_0x1B
	RJMP _0x20000AF
_0x20000B1:
_0x20000A2:
_0x2000087:
	LDD  R30,Y+8
	LDD  R31,Y+8+1
	LDD  R26,Y+13
	LDD  R27,Y+13+1
	ADD  R30,R26
	ADC  R31,R27
	STD  Y+13,R30
	STD  Y+13+1,R31
	RJMP _0x200005A
_0x200005C:
_0x2100009:
	CALL __LOADLOCR6
	ADIW R28,22
	RET
; .FEND

	.CSEG
_glcd_clipx:
; .FSTART _glcd_clipx
	CALL SUBOPT_0x1F
	BRLT _0x2020003
	LDI  R30,LOW(0)
	LDI  R31,HIGH(0)
	JMP  _0x2100003
_0x2020003:
	LD   R26,Y
	LDD  R27,Y+1
	CPI  R26,LOW(0x140)
	LDI  R30,HIGH(0x140)
	CPC  R27,R30
	BRLT _0x2020004
	LDI  R30,LOW(319)
	LDI  R31,HIGH(319)
	JMP  _0x2100003
_0x2020004:
	LD   R30,Y
	LDD  R31,Y+1
	JMP  _0x2100003
; .FEND
_glcd_clipy:
; .FSTART _glcd_clipy
	CALL SUBOPT_0x1F
	BRLT _0x2020005
	LDI  R30,LOW(0)
	LDI  R31,HIGH(0)
	JMP  _0x2100003
_0x2020005:
	LD   R26,Y
	LDD  R27,Y+1
	CPI  R26,LOW(0x40)
	LDI  R30,HIGH(0x40)
	CPC  R27,R30
	BRLT _0x2020006
	LDI  R30,LOW(63)
	LDI  R31,HIGH(63)
	JMP  _0x2100003
_0x2020006:
	LD   R30,Y
	LDD  R31,Y+1
	JMP  _0x2100003
; .FEND
_glcd_setpixel:
; .FSTART _glcd_setpixel
	CALL SUBOPT_0x10
	ST   -Y,R30
	LDS  R26,_glcd_state
	RCALL _glcd_putpixel
	JMP  _0x2100002
; .FEND
_glcd_getcharw_G101:
; .FSTART _glcd_getcharw_G101
	ST   -Y,R27
	ST   -Y,R26
	SBIW R28,3
	CALL SUBOPT_0x20
	MOVW R16,R30
	MOV  R0,R16
	OR   R0,R17
	BRNE _0x202000B
	LDI  R30,LOW(0)
	LDI  R31,HIGH(0)
	RJMP _0x2100005
_0x202000B:
	CALL SUBOPT_0x21
	STD  Y+7,R0
	CALL SUBOPT_0x21
	STD  Y+6,R0
	CALL SUBOPT_0x21
	STD  Y+8,R0
	LDD  R30,Y+11
	LDD  R26,Y+8
	CP   R30,R26
	BRSH _0x202000C
	LDI  R30,LOW(0)
	LDI  R31,HIGH(0)
	RJMP _0x2100005
_0x202000C:
	MOVW R30,R16
	__ADDWRN 16,17,1
	LPM  R21,Z
	LDD  R26,Y+8
	CLR  R27
	CLR  R30
	ADD  R26,R21
	ADC  R27,R30
	LDD  R30,Y+11
	LDI  R31,0
	CP   R30,R26
	CPC  R31,R27
	BRLO _0x202000D
	LDI  R30,LOW(0)
	LDI  R31,HIGH(0)
	RJMP _0x2100005
_0x202000D:
	LDD  R30,Y+6
	LSR  R30
	LSR  R30
	LSR  R30
	MOV  R20,R30
	LDD  R30,Y+6
	ANDI R30,LOW(0x7)
	BREQ _0x202000E
	SUBI R20,-LOW(1)
_0x202000E:
	LDD  R30,Y+7
	CPI  R30,0
	BREQ _0x202000F
	LDD  R26,Y+9
	LDD  R27,Y+9+1
	ST   X,R30
	LDD  R26,Y+8
	LDD  R30,Y+11
	SUB  R30,R26
	LDI  R31,0
	MOVW R26,R30
	LDD  R30,Y+7
	LDI  R31,0
	CALL __MULW12U
	MOVW R26,R30
	MOV  R30,R20
	LDI  R31,0
	CALL __MULW12U
	ADD  R30,R16
	ADC  R31,R17
	RJMP _0x2100005
_0x202000F:
	MOVW R18,R16
	MOV  R30,R21
	LDI  R31,0
	__ADDWRR 16,17,30,31
_0x2020010:
	LDD  R26,Y+8
	SUBI R26,-LOW(1)
	STD  Y+8,R26
	SUBI R26,LOW(1)
	LDD  R30,Y+11
	CP   R26,R30
	BRSH _0x2020012
	MOVW R30,R18
	__ADDWRN 18,19,1
	LPM  R26,Z
	LDI  R27,0
	MOV  R30,R20
	LDI  R31,0
	CALL __MULW12U
	__ADDWRR 16,17,30,31
	RJMP _0x2020010
_0x2020012:
	MOVW R30,R18
	LPM  R30,Z
	LDD  R26,Y+9
	LDD  R27,Y+9+1
	ST   X,R30
	MOVW R30,R16
	RJMP _0x2100005
; .FEND
_glcd_new_line_G101:
; .FSTART _glcd_new_line_G101
	LDI  R30,LOW(0)
	LDI  R31,HIGH(0)
	CALL SUBOPT_0x22
	__GETB2MN _glcd_state,4
	CLR  R27
	CALL SUBOPT_0x23
	LDI  R31,0
	ADD  R26,R30
	ADC  R27,R31
	__GETB1MN _glcd_state,8
	LDI  R31,0
	ADD  R26,R30
	ADC  R27,R31
	RCALL _glcd_clipy
	__PUTB1MN _glcd_state,4
	RET
; .FEND
_glcd_putchar:
; .FSTART _glcd_putchar
	ST   -Y,R26
	SBIW R28,1
	CALL SUBOPT_0x20
	SBIW R30,0
	BRNE PC+2
	RJMP _0x202001F
	LDD  R26,Y+7
	CPI  R26,LOW(0xA)
	BRNE _0x2020020
	RJMP _0x2020021
_0x2020020:
	LDD  R30,Y+7
	ST   -Y,R30
	MOVW R26,R28
	ADIW R26,7
	RCALL _glcd_getcharw_G101
	MOVW R20,R30
	SBIW R30,0
	BRNE _0x2020022
	RJMP _0x2100008
_0x2020022:
	__GETB1MN _glcd_state,7
	LDD  R26,Y+6
	ADD  R30,R26
	MOV  R19,R30
	__GETW2MN _glcd_state,2
	LDI  R31,0
	ADD  R30,R26
	ADC  R31,R27
	MOVW R16,R30
	__CPWRN 16,17,321
	BRLO _0x2020023
	MOV  R16,R19
	CLR  R17
	RCALL _glcd_new_line_G101
_0x2020023:
	CALL SUBOPT_0x24
	__GETB1MN _glcd_state,4
	ST   -Y,R30
	LDD  R30,Y+9
	LDI  R31,0
	ST   -Y,R31
	ST   -Y,R30
	CALL SUBOPT_0x23
	ST   -Y,R30
	LDI  R30,LOW(1)
	ST   -Y,R30
	ST   -Y,R21
	ST   -Y,R20
	LDI  R26,LOW(7)
	RCALL _glcd_block
	__GETW2MN _glcd_state,2
	LDD  R30,Y+6
	LDI  R31,0
	ADD  R30,R26
	ADC  R31,R27
	ST   -Y,R31
	ST   -Y,R30
	__GETB1MN _glcd_state,4
	ST   -Y,R30
	__GETB1MN _glcd_state,7
	LDI  R31,0
	ST   -Y,R31
	ST   -Y,R30
	CALL SUBOPT_0x23
	ST   -Y,R30
	LDI  R30,LOW(0)
	ST   -Y,R30
	CALL SUBOPT_0x0
	LDI  R26,LOW(9)
	RCALL _glcd_block
	CALL SUBOPT_0x24
	__GETB2MN _glcd_state,4
	CALL SUBOPT_0x23
	ADD  R30,R26
	ST   -Y,R30
	MOV  R30,R19
	LDI  R31,0
	ST   -Y,R31
	ST   -Y,R30
	__GETB1MN _glcd_state,8
	ST   -Y,R30
	LDI  R30,LOW(0)
	ST   -Y,R30
	CALL SUBOPT_0x0
	LDI  R26,LOW(9)
	RCALL _glcd_block
	LDI  R30,LOW(320)
	LDI  R31,HIGH(320)
	CP   R30,R16
	CPC  R31,R17
	BRNE _0x2020024
_0x2020021:
	RCALL _glcd_new_line_G101
	RJMP _0x2100008
_0x2020024:
_0x202001F:
	__PUTWMRN _glcd_state,2,16,17
_0x2100008:
	CALL __LOADLOCR6
	ADIW R28,8
	RET
; .FEND
_glcd_outtextxy:
; .FSTART _glcd_outtextxy
	ST   -Y,R27
	ST   -Y,R26
	ST   -Y,R17
	LDD  R30,Y+4
	LDD  R31,Y+4+1
	ST   -Y,R31
	ST   -Y,R30
	LDD  R26,Y+5
	RCALL _glcd_moveto
_0x2020025:
	LDD  R26,Y+1
	LDD  R27,Y+1+1
	LD   R30,X+
	STD  Y+1,R26
	STD  Y+1+1,R27
	MOV  R17,R30
	CPI  R30,0
	BREQ _0x2020027
	MOV  R26,R17
	RCALL _glcd_putchar
	RJMP _0x2020025
_0x2020027:
	LDD  R17,Y+0
_0x2100007:
	ADIW R28,6
	RET
; .FEND
_glcd_putpixelm_G101:
; .FSTART _glcd_putpixelm_G101
	ST   -Y,R26
	LDD  R30,Y+2
	LDD  R31,Y+2+1
	ST   -Y,R31
	ST   -Y,R30
	LDD  R30,Y+3
	ST   -Y,R30
	__GETB1MN _glcd_state,10
	LDD  R26,Y+3
	AND  R30,R26
	BREQ _0x202003E
	LDS  R30,_glcd_state
	RJMP _0x202003F
_0x202003E:
	__GETB1MN _glcd_state,1
_0x202003F:
	MOV  R26,R30
	RCALL _glcd_putpixel
	LD   R30,Y
	LSL  R30
	ST   Y,R30
	CPI  R30,0
	BRNE _0x2020041
	LDI  R30,LOW(1)
	ST   Y,R30
_0x2020041:
	LD   R30,Y
	JMP  _0x2100001
; .FEND
_glcd_moveto:
; .FSTART _glcd_moveto
	ST   -Y,R26
	LDD  R26,Y+1
	LDD  R27,Y+1+1
	RCALL _glcd_clipx
	CALL SUBOPT_0x22
	LD   R26,Y
	CLR  R27
	RCALL _glcd_clipy
	__PUTB1MN _glcd_state,4
	JMP  _0x2100002
; .FEND
_glcd_line:
; .FSTART _glcd_line
	ST   -Y,R26
	SBIW R28,13
	CALL __SAVELOCR6
	LDD  R26,Y+23
	LDD  R27,Y+23+1
	RCALL _glcd_clipx
	STD  Y+23,R30
	STD  Y+23+1,R31
	LDD  R26,Y+20
	LDD  R27,Y+20+1
	RCALL _glcd_clipx
	STD  Y+20,R30
	STD  Y+20+1,R31
	LDD  R26,Y+22
	CLR  R27
	RCALL _glcd_clipy
	STD  Y+22,R30
	LDD  R26,Y+19
	CLR  R27
	RCALL _glcd_clipy
	STD  Y+19,R30
	LDD  R30,Y+20
	LDD  R31,Y+20+1
	CALL SUBOPT_0x22
	LDD  R30,Y+19
	__PUTB1MN _glcd_state,4
	LDI  R30,LOW(1)
	STD  Y+8,R30
	LDD  R30,Y+19
	LDD  R26,Y+22
	CP   R30,R26
	BREQ PC+2
	RJMP _0x2020042
	__GETWRS 16,17,23
	LDD  R26,Y+20
	LDD  R27,Y+20+1
	CP   R16,R26
	CPC  R17,R27
	BRNE _0x2020043
	ST   -Y,R17
	ST   -Y,R16
	LDD  R30,Y+24
	ST   -Y,R30
	LDI  R26,LOW(1)
	RCALL _glcd_putpixelm_G101
	RJMP _0x2100006
_0x2020043:
	LDD  R26,Y+20
	LDD  R27,Y+20+1
	CP   R16,R26
	CPC  R17,R27
	BRSH _0x2020044
	LDD  R30,Y+20
	LDD  R31,Y+20+1
	SUB  R30,R16
	SBC  R31,R17
	MOVW R18,R30
	LDI  R30,LOW(1)
	LDI  R31,HIGH(1)
	RJMP _0x202011B
_0x2020044:
	LDD  R26,Y+20
	LDD  R27,Y+20+1
	MOVW R30,R16
	SUB  R30,R26
	SBC  R31,R27
	MOVW R18,R30
	LDI  R30,LOW(65535)
	LDI  R31,HIGH(65535)
_0x202011B:
	STD  Y+17,R30
	STD  Y+17+1,R31
_0x2020047:
	LDD  R21,Y+22
	LDI  R30,LOW(0)
	STD  Y+6,R30
_0x2020049:
	CALL SUBOPT_0x25
	BRSH _0x202004B
	ST   -Y,R17
	ST   -Y,R16
	ST   -Y,R21
	INC  R21
	LDD  R26,Y+11
	RCALL _glcd_putpixelm_G101
	STD  Y+7,R30
	RJMP _0x2020049
_0x202004B:
	LDD  R30,Y+7
	STD  Y+8,R30
	LDD  R30,Y+17
	LDD  R31,Y+17+1
	__ADDWRR 16,17,30,31
	MOVW R30,R18
	__SUBWRN 18,19,1
	SBIW R30,0
	BRNE _0x2020047
	RJMP _0x202004C
_0x2020042:
	LDD  R30,Y+20
	LDD  R31,Y+20+1
	LDD  R26,Y+23
	LDD  R27,Y+23+1
	CP   R30,R26
	CPC  R31,R27
	BRNE _0x202004D
	LDD  R21,Y+22
	LDD  R26,Y+19
	CP   R21,R26
	BRSH _0x202004E
	LDD  R30,Y+19
	SUB  R30,R21
	MOV  R20,R30
	LDI  R30,LOW(1)
	LDI  R31,HIGH(1)
	RJMP _0x202011C
_0x202004E:
	LDD  R26,Y+19
	MOV  R30,R21
	SUB  R30,R26
	MOV  R20,R30
	LDI  R30,LOW(65535)
	LDI  R31,HIGH(65535)
_0x202011C:
	STD  Y+13,R30
	STD  Y+13+1,R31
_0x2020051:
	__GETWRS 16,17,23
	LDI  R30,LOW(0)
	STD  Y+6,R30
_0x2020053:
	CALL SUBOPT_0x25
	BRSH _0x2020055
	MOVW R30,R16
	__ADDWRN 16,17,1
	ST   -Y,R31
	ST   -Y,R30
	CALL SUBOPT_0x26
	STD  Y+7,R30
	RJMP _0x2020053
_0x2020055:
	LDD  R30,Y+7
	STD  Y+8,R30
	LDD  R30,Y+13
	ADD  R21,R30
	MOV  R30,R20
	SUBI R20,1
	CPI  R30,0
	BRNE _0x2020051
	RJMP _0x2020056
_0x202004D:
	LDI  R30,LOW(0)
	STD  Y+6,R30
_0x2020057:
	CALL SUBOPT_0x25
	BRLO PC+2
	RJMP _0x2020059
	__GETWRS 16,17,23
	LDD  R21,Y+22
	LDI  R30,LOW(1)
	MOV  R20,R30
	MOV  R18,R30
	CLR  R19
	LDD  R26,Y+23
	LDD  R27,Y+23+1
	LDD  R30,Y+20
	LDD  R31,Y+20+1
	SUB  R30,R26
	SBC  R31,R27
	STD  Y+17,R30
	STD  Y+17+1,R31
	LDD  R26,Y+18
	TST  R26
	BRPL _0x202005A
	__GETWRN 18,19,-1
	CALL __ANEGW1
	STD  Y+17,R30
	STD  Y+17+1,R31
_0x202005A:
	LDD  R30,Y+17
	LDD  R31,Y+17+1
	LSL  R30
	ROL  R31
	STD  Y+15,R30
	STD  Y+15+1,R31
	LDD  R26,Y+19
	CLR  R27
	LDD  R30,Y+22
	LDI  R31,0
	SUB  R26,R30
	SBC  R27,R31
	STD  Y+13,R26
	STD  Y+13+1,R27
	LDD  R26,Y+14
	TST  R26
	BRPL _0x202005B
	LDI  R20,LOW(255)
	LDD  R30,Y+13
	LDD  R31,Y+13+1
	CALL __ANEGW1
	STD  Y+13,R30
	STD  Y+13+1,R31
_0x202005B:
	LDD  R30,Y+13
	LDD  R31,Y+13+1
	LSL  R30
	ROL  R31
	STD  Y+11,R30
	STD  Y+11+1,R31
	ST   -Y,R17
	ST   -Y,R16
	ST   -Y,R21
	LDI  R26,LOW(1)
	RCALL _glcd_putpixelm_G101
	STD  Y+8,R30
	LDI  R30,LOW(0)
	STD  Y+9,R30
	STD  Y+9+1,R30
	LDD  R30,Y+17
	LDD  R31,Y+17+1
	LDD  R26,Y+13
	LDD  R27,Y+13+1
	CP   R30,R26
	CPC  R31,R27
	BRLT _0x202005C
_0x202005E:
	__ADDWRR 16,17,18,19
	LDD  R30,Y+11
	LDD  R31,Y+11+1
	CALL SUBOPT_0x27
	LDD  R30,Y+17
	LDD  R31,Y+17+1
	LDD  R26,Y+9
	LDD  R27,Y+9+1
	CP   R30,R26
	CPC  R31,R27
	BRGE _0x2020060
	ADD  R21,R20
	LDD  R26,Y+15
	LDD  R27,Y+15+1
	CALL SUBOPT_0x28
_0x2020060:
	ST   -Y,R17
	ST   -Y,R16
	CALL SUBOPT_0x26
	STD  Y+8,R30
	LDD  R30,Y+20
	LDD  R31,Y+20+1
	CP   R30,R16
	CPC  R31,R17
	BRNE _0x202005E
	RJMP _0x2020061
_0x202005C:
_0x2020063:
	ADD  R21,R20
	LDD  R30,Y+15
	LDD  R31,Y+15+1
	CALL SUBOPT_0x27
	LDD  R30,Y+13
	LDD  R31,Y+13+1
	LDD  R26,Y+9
	LDD  R27,Y+9+1
	CP   R30,R26
	CPC  R31,R27
	BRGE _0x2020065
	__ADDWRR 16,17,18,19
	LDD  R26,Y+11
	LDD  R27,Y+11+1
	CALL SUBOPT_0x28
_0x2020065:
	ST   -Y,R17
	ST   -Y,R16
	CALL SUBOPT_0x26
	STD  Y+8,R30
	LDD  R30,Y+19
	CP   R30,R21
	BRNE _0x2020063
_0x2020061:
	LDD  R30,Y+22
	SUBI R30,-LOW(1)
	STD  Y+22,R30
	LDD  R30,Y+19
	SUBI R30,-LOW(1)
	STD  Y+19,R30
	RJMP _0x2020057
_0x2020059:
_0x2020056:
_0x202004C:
_0x2100006:
	CALL __LOADLOCR6
	ADIW R28,25
	RET
; .FEND
_glcd_plot8_G101:
; .FSTART _glcd_plot8_G101
	ST   -Y,R27
	ST   -Y,R26
	SBIW R28,3
	CALL __SAVELOCR6
	LDD  R30,Y+13
	STD  Y+8,R30
	__GETB1MN _glcd_state,9
	STD  Y+7,R30
	LDS  R30,_glcd_state
	STD  Y+6,R30
	LDD  R30,Y+15
	LDD  R26,Y+19
	LDD  R27,Y+19+1
	LDI  R31,0
	ADD  R30,R26
	ADC  R31,R27
	MOVW R16,R30
	LDD  R26,Y+18
	CLR  R27
	LDD  R30,Y+16
	LDD  R31,Y+16+1
	SUB  R26,R30
	SBC  R27,R31
	MOVW R18,R26
	LDD  R30,Y+18
	LDI  R31,0
	LDD  R26,Y+16
	LDD  R27,Y+16+1
	CALL SUBOPT_0x29
	BREQ _0x2020073
	LDD  R30,Y+8
	ANDI R30,LOW(0x80)
	BRNE _0x2020075
	LDD  R26,Y+13
	LDD  R27,Y+13+1
	LDI  R30,LOW(90)
	LDI  R31,HIGH(90)
	CALL SUBOPT_0x2A
	BRLT _0x2020077
	CALL SUBOPT_0x2B
	BRGE _0x2020078
_0x2020077:
	RJMP _0x2020076
_0x2020078:
_0x2020073:
	TST  R19
	BRMI _0x2020079
	CALL SUBOPT_0x2C
_0x2020079:
	LDD  R26,Y+7
	CPI  R26,LOW(0x2)
	BRLO _0x202007B
	__CPWRN 18,19,2
	BRGE _0x202007C
_0x202007B:
	RJMP _0x202007A
_0x202007C:
	CALL SUBOPT_0x2D
	BRNE _0x202007D
	CALL SUBOPT_0x2E
_0x202007D:
_0x202007A:
_0x2020076:
_0x2020075:
	LDD  R30,Y+8
	ANDI R30,LOW(0x88)
	CPI  R30,LOW(0x88)
	BREQ _0x202007F
	LDD  R30,Y+8
	ANDI R30,LOW(0x80)
	BRNE _0x2020081
	LDD  R26,Y+13
	LDD  R27,Y+13+1
	SUBI R26,LOW(-270)
	SBCI R27,HIGH(-270)
	CALL SUBOPT_0x2F
	BRLT _0x2020083
	LDD  R26,Y+13
	LDD  R27,Y+13+1
	SUBI R26,LOW(-270)
	SBCI R27,HIGH(-270)
	CALL SUBOPT_0x30
	BRGE _0x2020084
_0x2020083:
	RJMP _0x2020082
_0x2020084:
_0x202007F:
	CALL SUBOPT_0x31
	BRLO _0x2020085
	CALL SUBOPT_0x32
	BRNE _0x2020086
	CALL SUBOPT_0x33
_0x2020086:
_0x2020085:
_0x2020082:
_0x2020081:
	LDD  R30,Y+15
	LDD  R26,Y+19
	LDD  R27,Y+19+1
	LDI  R31,0
	SUB  R26,R30
	SBC  R27,R31
	MOVW R16,R26
	TST  R17
	BRPL PC+2
	RJMP _0x2020087
	LDD  R30,Y+8
	ANDI R30,LOW(0x82)
	CPI  R30,LOW(0x82)
	BREQ _0x2020089
	LDD  R30,Y+8
	ANDI R30,LOW(0x80)
	BRNE _0x202008B
	LDD  R26,Y+13
	LDD  R27,Y+13+1
	SUBI R26,LOW(-90)
	SBCI R27,HIGH(-90)
	CALL SUBOPT_0x2F
	BRLT _0x202008D
	LDD  R26,Y+13
	LDD  R27,Y+13+1
	SUBI R26,LOW(-90)
	SBCI R27,HIGH(-90)
	CALL SUBOPT_0x30
	BRGE _0x202008E
_0x202008D:
	RJMP _0x202008C
_0x202008E:
_0x2020089:
	TST  R19
	BRMI _0x202008F
	CALL SUBOPT_0x2C
_0x202008F:
	LDD  R26,Y+7
	CPI  R26,LOW(0x2)
	BRLO _0x2020091
	__CPWRN 18,19,2
	BRGE _0x2020092
_0x2020091:
	RJMP _0x2020090
_0x2020092:
	CALL SUBOPT_0x2D
	BRNE _0x2020093
	CALL SUBOPT_0x2E
_0x2020093:
_0x2020090:
_0x202008C:
_0x202008B:
	LDD  R30,Y+8
	ANDI R30,LOW(0x84)
	CPI  R30,LOW(0x84)
	BREQ _0x2020095
	LDD  R30,Y+8
	ANDI R30,LOW(0x80)
	BRNE _0x2020097
	LDD  R26,Y+13
	LDD  R27,Y+13+1
	LDI  R30,LOW(270)
	LDI  R31,HIGH(270)
	CALL SUBOPT_0x2A
	BRLT _0x2020099
	CALL SUBOPT_0x2B
	BRGE _0x202009A
_0x2020099:
	RJMP _0x2020098
_0x202009A:
_0x2020095:
	CALL SUBOPT_0x31
	BRLO _0x202009B
	CALL SUBOPT_0x32
	BRNE _0x202009C
	CALL SUBOPT_0x33
_0x202009C:
_0x202009B:
_0x2020098:
_0x2020097:
_0x2020087:
	LDD  R30,Y+16
	LDD  R31,Y+16+1
	LDD  R26,Y+19
	LDD  R27,Y+19+1
	ADD  R30,R26
	ADC  R31,R27
	MOVW R16,R30
	LDD  R26,Y+18
	CLR  R27
	LDD  R30,Y+15
	LDI  R31,0
	SUB  R26,R30
	SBC  R27,R31
	MOVW R18,R26
	LDD  R26,Y+18
	CLR  R27
	LDD  R30,Y+15
	LDI  R31,0
	CALL SUBOPT_0x29
	BREQ _0x202009E
	LDD  R30,Y+8
	ANDI R30,LOW(0x80)
	BRNE _0x20200A0
	LDD  R30,Y+11
	LDD  R31,Y+11+1
	LDD  R26,Y+13
	LDD  R27,Y+13+1
	CP   R26,R30
	CPC  R27,R31
	BRLT _0x20200A2
	LDD  R30,Y+9
	LDD  R31,Y+9+1
	CP   R30,R26
	CPC  R31,R27
	BRGE _0x20200A3
_0x20200A2:
	RJMP _0x20200A1
_0x20200A3:
_0x202009E:
	TST  R19
	BRMI _0x20200A4
	CALL SUBOPT_0x2C
	LDD  R26,Y+7
	CPI  R26,LOW(0x2)
	BRLO _0x20200A5
	MOVW R30,R16
	ADIW R30,2
	CALL SUBOPT_0x34
	BRNE _0x20200A6
	MOVW R30,R16
	ADIW R30,1
	ST   -Y,R31
	ST   -Y,R30
	MOV  R26,R18
	RCALL _glcd_setpixel
_0x20200A6:
_0x20200A5:
_0x20200A4:
_0x20200A1:
_0x20200A0:
	LDD  R30,Y+8
	ANDI R30,LOW(0x88)
	CPI  R30,LOW(0x88)
	BREQ _0x20200A8
	LDD  R30,Y+8
	ANDI R30,LOW(0x80)
	BRNE _0x20200AA
	LDD  R26,Y+13
	LDD  R27,Y+13+1
	LDI  R30,LOW(360)
	LDI  R31,HIGH(360)
	CALL SUBOPT_0x2A
	BRLT _0x20200AC
	CALL SUBOPT_0x2B
	BRGE _0x20200AD
_0x20200AC:
	RJMP _0x20200AB
_0x20200AD:
_0x20200A8:
	CALL SUBOPT_0x31
	BRLO _0x20200AE
	MOVW R30,R16
	ADIW R30,2
	CALL SUBOPT_0x35
	BRNE _0x20200AF
	MOVW R30,R16
	ADIW R30,1
	ST   -Y,R31
	ST   -Y,R30
	MOV  R26,R20
	RCALL _glcd_setpixel
_0x20200AF:
_0x20200AE:
_0x20200AB:
_0x20200AA:
	LDD  R26,Y+16
	LDD  R27,Y+16+1
	LDD  R30,Y+19
	LDD  R31,Y+19+1
	SUB  R30,R26
	SBC  R31,R27
	MOVW R16,R30
	TST  R17
	BRPL PC+2
	RJMP _0x20200B0
	LDD  R30,Y+8
	ANDI R30,LOW(0x82)
	CPI  R30,LOW(0x82)
	BREQ _0x20200B2
	LDD  R30,Y+8
	ANDI R30,LOW(0x80)
	BRNE _0x20200B4
	LDD  R26,Y+13
	LDD  R27,Y+13+1
	LDI  R30,LOW(180)
	LDI  R31,HIGH(180)
	CALL SUBOPT_0x2A
	BRLT _0x20200B6
	CALL SUBOPT_0x2B
	BRGE _0x20200B7
_0x20200B6:
	RJMP _0x20200B5
_0x20200B7:
_0x20200B2:
	TST  R19
	BRMI _0x20200B8
	CALL SUBOPT_0x2C
	LDD  R26,Y+7
	CPI  R26,LOW(0x2)
	BRLO _0x20200BA
	__CPWRN 16,17,2
	BRGE _0x20200BB
_0x20200BA:
	RJMP _0x20200B9
_0x20200BB:
	MOVW R30,R16
	SBIW R30,2
	CALL SUBOPT_0x34
	BRNE _0x20200BC
	MOVW R30,R16
	SBIW R30,1
	ST   -Y,R31
	ST   -Y,R30
	MOV  R26,R18
	RCALL _glcd_setpixel
_0x20200BC:
_0x20200B9:
_0x20200B8:
_0x20200B5:
_0x20200B4:
	LDD  R30,Y+8
	ANDI R30,LOW(0x84)
	CPI  R30,LOW(0x84)
	BREQ _0x20200BE
	LDD  R30,Y+8
	ANDI R30,LOW(0x80)
	BRNE _0x20200C0
	LDD  R26,Y+13
	LDD  R27,Y+13+1
	SUBI R26,LOW(-180)
	SBCI R27,HIGH(-180)
	CALL SUBOPT_0x2F
	BRLT _0x20200C2
	LDD  R26,Y+13
	LDD  R27,Y+13+1
	SUBI R26,LOW(-180)
	SBCI R27,HIGH(-180)
	CALL SUBOPT_0x30
	BRGE _0x20200C3
_0x20200C2:
	RJMP _0x20200C1
_0x20200C3:
_0x20200BE:
	CALL SUBOPT_0x31
	BRLO _0x20200C5
	__CPWRN 16,17,2
	BRGE _0x20200C6
_0x20200C5:
	RJMP _0x20200C4
_0x20200C6:
	MOVW R30,R16
	SBIW R30,2
	CALL SUBOPT_0x35
	BRNE _0x20200C7
	MOVW R30,R16
	SBIW R30,1
	ST   -Y,R31
	ST   -Y,R30
	MOV  R26,R20
	RCALL _glcd_setpixel
_0x20200C7:
_0x20200C4:
_0x20200C1:
_0x20200C0:
_0x20200B0:
	CALL __LOADLOCR6
	ADIW R28,21
	RET
; .FEND
_glcd_line2_G101:
; .FSTART _glcd_line2_G101
	ST   -Y,R27
	ST   -Y,R26
	CALL __SAVELOCR6
	LDD  R26,Y+8
	LDD  R27,Y+8+1
	LDD  R30,Y+11
	LDD  R31,Y+11+1
	SUB  R30,R26
	SBC  R31,R27
	MOVW R26,R30
	RCALL _glcd_clipx
	MOVW R16,R30
	LDD  R30,Y+8
	LDD  R31,Y+8+1
	LDD  R26,Y+11
	LDD  R27,Y+11+1
	ADD  R26,R30
	ADC  R27,R31
	RCALL _glcd_clipx
	MOVW R18,R30
	LDD  R26,Y+10
	CLR  R27
	LDD  R30,Y+6
	LDD  R31,Y+6+1
	SUB  R26,R30
	SBC  R27,R31
	RCALL _glcd_clipy
	MOV  R21,R30
	LDD  R30,Y+10
	LDI  R31,0
	LDD  R26,Y+6
	LDD  R27,Y+6+1
	ADD  R26,R30
	ADC  R27,R31
	RCALL _glcd_clipy
	MOV  R20,R30
	ST   -Y,R17
	ST   -Y,R16
	ST   -Y,R21
	ST   -Y,R19
	ST   -Y,R18
	MOV  R26,R21
	RCALL _glcd_line
	ST   -Y,R17
	ST   -Y,R16
	ST   -Y,R20
	ST   -Y,R19
	ST   -Y,R18
	MOV  R26,R20
	RCALL _glcd_line
	CALL __LOADLOCR6
	ADIW R28,13
	RET
; .FEND
_glcd_quadrant_G101:
; .FSTART _glcd_quadrant_G101
	ST   -Y,R26
	CALL __SAVELOCR6
	LDD  R26,Y+10
	LDD  R27,Y+10+1
	CPI  R26,LOW(0x140)
	LDI  R30,HIGH(0x140)
	CPC  R27,R30
	BRSH _0x20200C9
	LDD  R26,Y+9
	CPI  R26,LOW(0x40)
	BRLO _0x20200C8
_0x20200C9:
	RJMP _0x2100005
_0x20200C8:
	__GETBRMN 18,_glcd_state,9
_0x20200CB:
	MOV  R30,R18
	SUBI R18,1
	CPI  R30,0
	BRNE PC+2
	RJMP _0x20200CD
	LDD  R30,Y+7
	LDD  R31,Y+7+1
	SBIW R30,0
	BRNE _0x20200CE
	RJMP _0x2100005
_0x20200CE:
	LDD  R30,Y+7
	LDD  R31,Y+7+1
	SBIW R30,1
	STD  Y+7,R30
	STD  Y+7+1,R31
	ADIW R30,1
	MOV  R19,R30
	LDI  R31,0
	LDI  R26,LOW(5)
	LDI  R27,HIGH(5)
	SUB  R26,R30
	SBC  R27,R31
	MOVW R30,R26
	CALL __LSLW2
	CALL __ASRW2
	MOVW R20,R30
	__GETWRN 16,17,0
_0x20200D0:
	LDD  R26,Y+6
	CPI  R26,LOW(0x40)
	BRNE _0x20200D2
	CALL SUBOPT_0x36
	ST   -Y,R17
	ST   -Y,R16
	MOV  R26,R19
	CLR  R27
	RCALL _glcd_line2_G101
	CALL SUBOPT_0x36
	MOV  R30,R19
	LDI  R31,0
	ST   -Y,R31
	ST   -Y,R30
	MOVW R26,R16
	RCALL _glcd_line2_G101
	RJMP _0x20200D3
_0x20200D2:
	CALL SUBOPT_0x36
	ST   -Y,R17
	ST   -Y,R16
	ST   -Y,R19
	LDD  R30,Y+12
	LDI  R31,0
	ST   -Y,R31
	ST   -Y,R30
	CALL SUBOPT_0x0
	LDI  R26,LOW(0)
	LDI  R27,0
	RCALL _glcd_plot8_G101
_0x20200D3:
	__ADDWRN 16,17,1
	TST  R21
	BRPL _0x20200D4
	MOVW R30,R16
	RJMP _0x202011D
_0x20200D4:
	SUBI R19,1
	MOV  R30,R19
	MOVW R26,R16
	LDI  R31,0
	SUB  R26,R30
	SBC  R27,R31
	MOVW R30,R26
_0x202011D:
	LSL  R30
	ROL  R31
	ADIW R30,1
	__ADDWRR 20,21,30,31
	MOV  R30,R19
	MOVW R26,R16
	LDI  R31,0
	CP   R30,R26
	CPC  R31,R27
	BRSH _0x20200D0
	RJMP _0x20200CB
_0x20200CD:
_0x2100005:
	CALL __LOADLOCR6
	ADIW R28,12
	RET
; .FEND
_glcd_circle:
; .FSTART _glcd_circle
	ST   -Y,R27
	ST   -Y,R26
	LDD  R30,Y+3
	LDD  R31,Y+3+1
	ST   -Y,R31
	ST   -Y,R30
	LDD  R30,Y+4
	ST   -Y,R30
	LDD  R30,Y+3
	LDD  R31,Y+3+1
	ST   -Y,R31
	ST   -Y,R30
	LDI  R26,LOW(143)
	RCALL _glcd_quadrant_G101
	RJMP _0x2100004
; .FEND

	.CSEG
_memset:
; .FSTART _memset
	ST   -Y,R27
	ST   -Y,R26
    ldd  r27,y+1
    ld   r26,y
    adiw r26,0
    breq memset1
    ldd  r31,y+4
    ldd  r30,y+3
    ldd  r22,y+2
memset0:
    st   z+,r22
    sbiw r26,1
    brne memset0
memset1:
    ldd  r30,y+3
    ldd  r31,y+4
_0x2100004:
	ADIW R28,5
	RET
; .FEND

	.CSEG
_glcd_getmask:
; .FSTART _glcd_getmask
	ST   -Y,R26
	LD   R30,Y
	LDI  R31,0
	SUBI R30,LOW(-__glcd_mask*2)
	SBCI R31,HIGH(-__glcd_mask*2)
	LPM  R26,Z
	LDD  R30,Y+1
	CALL __LSLB12
_0x2100003:
	ADIW R28,2
	RET
; .FEND
_glcd_mappixcolor1bit:
; .FSTART _glcd_mappixcolor1bit
	ST   -Y,R26
	ST   -Y,R17
	LDD  R30,Y+1
	CPI  R30,LOW(0x7)
	BREQ _0x2080007
	CPI  R30,LOW(0xA)
	BRNE _0x2080008
_0x2080007:
	LDS  R17,_glcd_state
	RJMP _0x2080009
_0x2080008:
	CPI  R30,LOW(0x9)
	BRNE _0x208000B
	__GETBRMN 17,_glcd_state,1
	RJMP _0x2080009
_0x208000B:
	CPI  R30,LOW(0x8)
	BRNE _0x2080005
	__GETBRMN 17,_glcd_state,20
_0x2080009:
	__GETB1MN _glcd_state,1
	CPI  R30,0
	BREQ _0x208000E
	CPI  R17,0
	BREQ _0x208000F
	LDI  R30,LOW(255)
	LDD  R17,Y+0
	RJMP _0x2100002
_0x208000F:
	LDD  R30,Y+2
	COM  R30
	LDD  R17,Y+0
	RJMP _0x2100002
_0x208000E:
	CPI  R17,0
	BRNE _0x2080011
	LDI  R30,LOW(0)
	LDD  R17,Y+0
	RJMP _0x2100002
_0x2080011:
_0x2080005:
	LDD  R30,Y+2
	LDD  R17,Y+0
	RJMP _0x2100002
; .FEND
_glcd_readmem:
; .FSTART _glcd_readmem
	ST   -Y,R27
	ST   -Y,R26
	LDD  R30,Y+2
	CPI  R30,LOW(0x1)
	BRNE _0x2080015
	LD   R30,Y
	LDD  R31,Y+1
	LPM  R30,Z
	RJMP _0x2100002
_0x2080015:
	CPI  R30,LOW(0x2)
	BRNE _0x2080016
	LD   R26,Y
	LDD  R27,Y+1
	CALL __EEPROMRDB
	RJMP _0x2100002
_0x2080016:
	CPI  R30,LOW(0x3)
	BRNE _0x2080018
	LD   R26,Y
	LDD  R27,Y+1
	__CALL1MN _glcd_state,29
	RJMP _0x2100002
_0x2080018:
	LD   R26,Y
	LDD  R27,Y+1
	LD   R30,X
_0x2100002:
	ADIW R28,3
	RET
; .FEND
_glcd_writemem:
; .FSTART _glcd_writemem
	ST   -Y,R26
	LDD  R30,Y+3
	CPI  R30,0
	BRNE _0x208001C
	LD   R30,Y
	LDD  R26,Y+1
	LDD  R27,Y+1+1
	ST   X,R30
	RJMP _0x208001B
_0x208001C:
	CPI  R30,LOW(0x2)
	BRNE _0x208001D
	LD   R30,Y
	LDD  R26,Y+1
	LDD  R27,Y+1+1
	CALL __EEPROMWRB
	RJMP _0x208001B
_0x208001D:
	CPI  R30,LOW(0x3)
	BRNE _0x208001B
	LDD  R30,Y+1
	LDD  R31,Y+1+1
	ST   -Y,R31
	ST   -Y,R30
	LDD  R26,Y+2
	__CALL1MN _glcd_state,31
_0x208001B:
_0x2100001:
	ADIW R28,4
	RET
; .FEND

	.CSEG

	.CSEG

	.DSEG

	.CSEG

	.CSEG

	.DSEG
_glcd_state:
	.BYTE 0x21
_ks0108_coord_G100:
	.BYTE 0x4
__seed_G106:
	.BYTE 0x4

	.CSEG
;OPTIMIZER ADDED SUBROUTINE, CALLED 8 TIMES, CODE SIZE REDUCTION:11 WORDS
SUBOPT_0x0:
	LDI  R30,LOW(0)
	LDI  R31,HIGH(0)
	ST   -Y,R31
	ST   -Y,R30
	RET

;OPTIMIZER ADDED SUBROUTINE, CALLED 2 TIMES, CODE SIZE REDUCTION:1 WORDS
SUBOPT_0x1:
	LDI  R26,LOW(2000)
	LDI  R27,HIGH(2000)
	CALL _delay_ms
	JMP  _glcd_clear

;OPTIMIZER ADDED SUBROUTINE, CALLED 2 TIMES, CODE SIZE REDUCTION:1 WORDS
SUBOPT_0x2:
	LDI  R30,LOW(55)
	LDI  R31,HIGH(55)
	ST   -Y,R31
	ST   -Y,R30
	LDI  R30,LOW(63)
	ST   -Y,R30
	RET

;OPTIMIZER ADDED SUBROUTINE, CALLED 4 TIMES, CODE SIZE REDUCTION:3 WORDS
SUBOPT_0x3:
	LDI  R30,LOW(91)
	LDI  R31,HIGH(91)
	ST   -Y,R31
	ST   -Y,R30
	RET

;OPTIMIZER ADDED SUBROUTINE, CALLED 4 TIMES, CODE SIZE REDUCTION:6 WORDS
SUBOPT_0x4:
	ST   -Y,R31
	ST   -Y,R30
	LDI  R26,LOW(32)
	JMP  _glcd_line

;OPTIMIZER ADDED SUBROUTINE, CALLED 2 TIMES, CODE SIZE REDUCTION:1 WORDS
SUBOPT_0x5:
	LDI  R30,LOW(73)
	LDI  R31,HIGH(73)
	ST   -Y,R31
	ST   -Y,R30
	LDI  R30,LOW(0)
	ST   -Y,R30
	RET

;OPTIMIZER ADDED SUBROUTINE, CALLED 4 TIMES, CODE SIZE REDUCTION:3 WORDS
SUBOPT_0x6:
	LDI  R30,LOW(59)
	LDI  R31,HIGH(59)
	ST   -Y,R31
	ST   -Y,R30
	RET

;OPTIMIZER ADDED SUBROUTINE, CALLED 2 TIMES, CODE SIZE REDUCTION:1 WORDS
SUBOPT_0x7:
	CALL _glcd_line
	LDI  R30,LOW(52)
	LDI  R31,HIGH(52)
	ST   -Y,R31
	ST   -Y,R30
	RET

;OPTIMIZER ADDED SUBROUTINE, CALLED 2 TIMES, CODE SIZE REDUCTION:1 WORDS
SUBOPT_0x8:
	LDI  R30,LOW(7)
	ST   -Y,R30
	LDI  R30,LOW(62)
	LDI  R31,HIGH(62)
	ST   -Y,R31
	ST   -Y,R30
	RET

;OPTIMIZER ADDED SUBROUTINE, CALLED 2 TIMES, CODE SIZE REDUCTION:1 WORDS
SUBOPT_0x9:
	LDI  R30,LOW(7)
	ST   -Y,R30
	LDI  R30,LOW(49)
	LDI  R31,HIGH(49)
	ST   -Y,R31
	ST   -Y,R30
	RET

;OPTIMIZER ADDED SUBROUTINE, CALLED 2 TIMES, CODE SIZE REDUCTION:2 WORDS
SUBOPT_0xA:
	LDI  R26,LOW(3)
	CALL _glcd_line
	LDI  R30,LOW(49)
	LDI  R31,HIGH(49)
	ST   -Y,R31
	ST   -Y,R30
	RET

;OPTIMIZER ADDED SUBROUTINE, CALLED 2 TIMES, CODE SIZE REDUCTION:4 WORDS
SUBOPT_0xB:
	STS  _glcd_state,R30
	ST   -Y,R17
	ST   -Y,R16
	ST   -Y,R18
	LDI  R26,LOW(4)
	LDI  R27,0
	JMP  _glcd_circle

;OPTIMIZER ADDED SUBROUTINE, CALLED 2 TIMES, CODE SIZE REDUCTION:6 WORDS
SUBOPT_0xC:
	LDD  R30,Y+6
	LDD  R31,Y+6+1
	__ADDWRR 16,17,30,31
	LDD  R26,Y+6
	LDD  R27,Y+6+1
	ADD  R26,R16
	ADC  R27,R17
	CPI  R26,LOW(0x7F)
	LDI  R30,HIGH(0x7F)
	CPC  R27,R30
	RET

;OPTIMIZER ADDED SUBROUTINE, CALLED 2 TIMES, CODE SIZE REDUCTION:2 WORDS
SUBOPT_0xD:
	LDD  R26,Y+6
	LDD  R27,Y+6+1
	MOVW R30,R18
	SUB  R30,R26
	SBC  R31,R27
	CALL __CPW01
	RET

;OPTIMIZER ADDED SUBROUTINE, CALLED 2 TIMES, CODE SIZE REDUCTION:6 WORDS
SUBOPT_0xE:
	LDD  R26,Y+6
	LDD  R27,Y+6+1
	__SUBWRR 16,17,26,27
	MOVW R30,R16
	SUB  R30,R26
	SBC  R31,R27
	CALL __CPW01
	RET

;OPTIMIZER ADDED SUBROUTINE, CALLED 2 TIMES, CODE SIZE REDUCTION:4 WORDS
SUBOPT_0xF:
	CBI  0x18,1
	LDI  R30,LOW(255)
	OUT  0x1A,R30
	LD   R30,Y
	OUT  0x1B,R30
	CALL _ks0108_enable_G100
	JMP  _ks0108_disable_G100

;OPTIMIZER ADDED SUBROUTINE, CALLED 2 TIMES, CODE SIZE REDUCTION:1 WORDS
SUBOPT_0x10:
	ST   -Y,R26
	LDD  R30,Y+1
	LDD  R31,Y+1+1
	ST   -Y,R31
	ST   -Y,R30
	LDD  R30,Y+2
	RET

;OPTIMIZER ADDED SUBROUTINE, CALLED 2 TIMES, CODE SIZE REDUCTION:1 WORDS
SUBOPT_0x11:
	LSR  R30
	LSR  R30
	LSR  R30
	MOV  R26,R30
	JMP  _ks0108_gotoxp_G100

;OPTIMIZER ADDED SUBROUTINE, CALLED 3 TIMES, CODE SIZE REDUCTION:1 WORDS
SUBOPT_0x12:
	CALL _ks0108_wrdata_G100
	JMP  _ks0108_nextx_G100

;OPTIMIZER ADDED SUBROUTINE, CALLED 2 TIMES, CODE SIZE REDUCTION:1 WORDS
SUBOPT_0x13:
	LDD  R26,Y+13
	LDD  R27,Y+13+1
	ADD  R30,R26
	ADC  R31,R27
	STD  Y+6,R30
	STD  Y+6+1,R31
	RET

;OPTIMIZER ADDED SUBROUTINE, CALLED 2 TIMES, CODE SIZE REDUCTION:8 WORDS
SUBOPT_0x14:
	LDD  R30,Y+15
	ST   -Y,R30
	LDD  R30,Y+7
	LDD  R31,Y+7+1
	ADIW R30,1
	STD  Y+7,R30
	STD  Y+7+1,R31
	SBIW R30,1
	ST   -Y,R31
	ST   -Y,R30
	LDI  R26,LOW(0)
	JMP  _glcd_writemem

;OPTIMIZER ADDED SUBROUTINE, CALLED 7 TIMES, CODE SIZE REDUCTION:9 WORDS
SUBOPT_0x15:
	__ADDWRN 16,17,1
	LDD  R30,Y+17
	LDD  R31,Y+17+1
	RET

;OPTIMIZER ADDED SUBROUTINE, CALLED 4 TIMES, CODE SIZE REDUCTION:15 WORDS
SUBOPT_0x16:
	LDD  R30,Y+15
	ST   -Y,R30
	LDD  R30,Y+7
	LDD  R31,Y+7+1
	ADIW R30,1
	STD  Y+7,R30
	STD  Y+7+1,R31
	SBIW R30,1
	RET

;OPTIMIZER ADDED SUBROUTINE, CALLED 3 TIMES, CODE SIZE REDUCTION:5 WORDS
SUBOPT_0x17:
	CLR  R22
	CLR  R23
	MOVW R26,R30
	MOVW R24,R22
	JMP  _glcd_readmem

;OPTIMIZER ADDED SUBROUTINE, CALLED 3 TIMES, CODE SIZE REDUCTION:3 WORDS
SUBOPT_0x18:
	LDD  R30,Y+11
	ST   -Y,R30
	LDD  R26,Y+13
	JMP  _glcd_mappixcolor1bit

;OPTIMIZER ADDED SUBROUTINE, CALLED 7 TIMES, CODE SIZE REDUCTION:15 WORDS
SUBOPT_0x19:
	MOVW R30,R18
	__ADDWRN 18,19,1
	ST   -Y,R31
	ST   -Y,R30
	RET

;OPTIMIZER ADDED SUBROUTINE, CALLED 3 TIMES, CODE SIZE REDUCTION:1 WORDS
SUBOPT_0x1A:
	LDD  R30,Y+21
	ST   -Y,R30
	LDD  R30,Y+14
	ST   -Y,R30
	RET

;OPTIMIZER ADDED SUBROUTINE, CALLED 3 TIMES, CODE SIZE REDUCTION:1 WORDS
SUBOPT_0x1B:
	ST   -Y,R30
	LDD  R26,Y+17
	JMP  _ks0108_wrmasked_G100

;OPTIMIZER ADDED SUBROUTINE, CALLED 2 TIMES, CODE SIZE REDUCTION:5 WORDS
SUBOPT_0x1C:
	STD  Y+11,R30
	LDD  R30,Y+15
	ST   -Y,R30
	LDD  R26,Y+7
	LDD  R27,Y+7+1
	CLR  R24
	CLR  R25
	CALL _glcd_readmem
	MOV  R1,R30
	RET

;OPTIMIZER ADDED SUBROUTINE, CALLED 2 TIMES, CODE SIZE REDUCTION:2 WORDS
SUBOPT_0x1D:
	COM  R30
	AND  R30,R1
	LDD  R26,Y+11
	OR   R30,R26
	STD  Y+11,R30
	RJMP SUBOPT_0x16

;OPTIMIZER ADDED SUBROUTINE, CALLED 2 TIMES, CODE SIZE REDUCTION:7 WORDS
SUBOPT_0x1E:
	LDD  R30,Y+21
	ST   -Y,R30
	LDD  R30,Y+18
	ST   -Y,R30
	LDD  R30,Y+10
	LDD  R31,Y+10+1
	ADIW R30,1
	STD  Y+10,R30
	STD  Y+10+1,R31
	SBIW R30,1
	RJMP SUBOPT_0x17

;OPTIMIZER ADDED SUBROUTINE, CALLED 2 TIMES, CODE SIZE REDUCTION:1 WORDS
SUBOPT_0x1F:
	ST   -Y,R27
	ST   -Y,R26
	LD   R26,Y
	LDD  R27,Y+1
	CALL __CPW02
	RET

;OPTIMIZER ADDED SUBROUTINE, CALLED 2 TIMES, CODE SIZE REDUCTION:1 WORDS
SUBOPT_0x20:
	CALL __SAVELOCR6
	__GETW1MN _glcd_state,5
	RET

;OPTIMIZER ADDED SUBROUTINE, CALLED 3 TIMES, CODE SIZE REDUCTION:1 WORDS
SUBOPT_0x21:
	MOVW R30,R16
	__ADDWRN 16,17,1
	LPM  R0,Z
	RET

;OPTIMIZER ADDED SUBROUTINE, CALLED 3 TIMES, CODE SIZE REDUCTION:1 WORDS
SUBOPT_0x22:
	__PUTW1MN _glcd_state,2
	RET

;OPTIMIZER ADDED SUBROUTINE, CALLED 4 TIMES, CODE SIZE REDUCTION:9 WORDS
SUBOPT_0x23:
	__GETW1MN _glcd_state,5
	ADIW R30,1
	LPM  R30,Z
	RET

;OPTIMIZER ADDED SUBROUTINE, CALLED 2 TIMES, CODE SIZE REDUCTION:1 WORDS
SUBOPT_0x24:
	__GETW1MN _glcd_state,2
	ST   -Y,R31
	ST   -Y,R30
	RET

;OPTIMIZER ADDED SUBROUTINE, CALLED 3 TIMES, CODE SIZE REDUCTION:7 WORDS
SUBOPT_0x25:
	LDD  R26,Y+6
	SUBI R26,-LOW(1)
	STD  Y+6,R26
	SUBI R26,LOW(1)
	__GETB1MN _glcd_state,9
	CP   R26,R30
	RET

;OPTIMIZER ADDED SUBROUTINE, CALLED 3 TIMES, CODE SIZE REDUCTION:1 WORDS
SUBOPT_0x26:
	ST   -Y,R21
	LDD  R26,Y+11
	JMP  _glcd_putpixelm_G101

;OPTIMIZER ADDED SUBROUTINE, CALLED 2 TIMES, CODE SIZE REDUCTION:1 WORDS
SUBOPT_0x27:
	LDD  R26,Y+9
	LDD  R27,Y+9+1
	ADD  R30,R26
	ADC  R31,R27
	STD  Y+9,R30
	STD  Y+9+1,R31
	RET

;OPTIMIZER ADDED SUBROUTINE, CALLED 2 TIMES, CODE SIZE REDUCTION:1 WORDS
SUBOPT_0x28:
	LDD  R30,Y+9
	LDD  R31,Y+9+1
	SUB  R30,R26
	SBC  R31,R27
	STD  Y+9,R30
	STD  Y+9+1,R31
	RET

;OPTIMIZER ADDED SUBROUTINE, CALLED 2 TIMES, CODE SIZE REDUCTION:1 WORDS
SUBOPT_0x29:
	ADD  R30,R26
	ADC  R31,R27
	MOVW R20,R30
	LDD  R30,Y+8
	ANDI R30,LOW(0x81)
	CPI  R30,LOW(0x81)
	RET

;OPTIMIZER ADDED SUBROUTINE, CALLED 4 TIMES, CODE SIZE REDUCTION:15 WORDS
SUBOPT_0x2A:
	SUB  R30,R26
	SBC  R31,R27
	MOVW R0,R30
	MOVW R26,R30
	LDD  R30,Y+11
	LDD  R31,Y+11+1
	CP   R26,R30
	CPC  R27,R31
	RET

;OPTIMIZER ADDED SUBROUTINE, CALLED 4 TIMES, CODE SIZE REDUCTION:3 WORDS
SUBOPT_0x2B:
	LDD  R30,Y+9
	LDD  R31,Y+9+1
	CP   R30,R0
	CPC  R31,R1
	RET

;OPTIMIZER ADDED SUBROUTINE, CALLED 4 TIMES, CODE SIZE REDUCTION:6 WORDS
SUBOPT_0x2C:
	ST   -Y,R17
	ST   -Y,R16
	MOV  R26,R18
	JMP  _glcd_setpixel

;OPTIMIZER ADDED SUBROUTINE, CALLED 2 TIMES, CODE SIZE REDUCTION:4 WORDS
SUBOPT_0x2D:
	ST   -Y,R17
	ST   -Y,R16
	MOV  R26,R18
	SUBI R26,LOW(2)
	CALL _glcd_getpixel
	MOV  R26,R30
	LDD  R30,Y+6
	CP   R30,R26
	RET

;OPTIMIZER ADDED SUBROUTINE, CALLED 2 TIMES, CODE SIZE REDUCTION:1 WORDS
SUBOPT_0x2E:
	ST   -Y,R17
	ST   -Y,R16
	MOV  R26,R18
	SUBI R26,LOW(1)
	JMP  _glcd_setpixel

;OPTIMIZER ADDED SUBROUTINE, CALLED 3 TIMES, CODE SIZE REDUCTION:1 WORDS
SUBOPT_0x2F:
	LDD  R30,Y+11
	LDD  R31,Y+11+1
	CP   R26,R30
	CPC  R27,R31
	RET

;OPTIMIZER ADDED SUBROUTINE, CALLED 3 TIMES, CODE SIZE REDUCTION:1 WORDS
SUBOPT_0x30:
	LDD  R30,Y+9
	LDD  R31,Y+9+1
	CP   R30,R26
	CPC  R31,R27
	RET

;OPTIMIZER ADDED SUBROUTINE, CALLED 4 TIMES, CODE SIZE REDUCTION:12 WORDS
SUBOPT_0x31:
	ST   -Y,R17
	ST   -Y,R16
	MOV  R26,R20
	CALL _glcd_setpixel
	LDD  R26,Y+7
	CPI  R26,LOW(0x2)
	RET

;OPTIMIZER ADDED SUBROUTINE, CALLED 2 TIMES, CODE SIZE REDUCTION:4 WORDS
SUBOPT_0x32:
	ST   -Y,R17
	ST   -Y,R16
	MOV  R26,R20
	SUBI R26,-LOW(2)
	CALL _glcd_getpixel
	MOV  R26,R30
	LDD  R30,Y+6
	CP   R30,R26
	RET

;OPTIMIZER ADDED SUBROUTINE, CALLED 2 TIMES, CODE SIZE REDUCTION:1 WORDS
SUBOPT_0x33:
	ST   -Y,R17
	ST   -Y,R16
	MOV  R26,R20
	SUBI R26,-LOW(1)
	JMP  _glcd_setpixel

;OPTIMIZER ADDED SUBROUTINE, CALLED 2 TIMES, CODE SIZE REDUCTION:3 WORDS
SUBOPT_0x34:
	ST   -Y,R31
	ST   -Y,R30
	MOV  R26,R18
	CALL _glcd_getpixel
	MOV  R26,R30
	LDD  R30,Y+6
	CP   R30,R26
	RET

;OPTIMIZER ADDED SUBROUTINE, CALLED 2 TIMES, CODE SIZE REDUCTION:3 WORDS
SUBOPT_0x35:
	ST   -Y,R31
	ST   -Y,R30
	MOV  R26,R20
	CALL _glcd_getpixel
	MOV  R26,R30
	LDD  R30,Y+6
	CP   R30,R26
	RET

;OPTIMIZER ADDED SUBROUTINE, CALLED 3 TIMES, CODE SIZE REDUCTION:5 WORDS
SUBOPT_0x36:
	LDD  R30,Y+10
	LDD  R31,Y+10+1
	ST   -Y,R31
	ST   -Y,R30
	LDD  R30,Y+11
	ST   -Y,R30
	RET


	.CSEG
_delay_ms:
	adiw r26,0
	breq __delay_ms1
__delay_ms0:
	__DELAY_USW 0xFA0
	wdr
	sbiw r26,1
	brne __delay_ms0
__delay_ms1:
	ret

__ANEGW1:
	NEG  R31
	NEG  R30
	SBCI R31,0
	RET

__LSLB12:
	TST  R30
	MOV  R0,R30
	MOV  R30,R26
	BREQ __LSLB12R
__LSLB12L:
	LSL  R30
	DEC  R0
	BRNE __LSLB12L
__LSLB12R:
	RET

__LSRB12:
	TST  R30
	MOV  R0,R30
	MOV  R30,R26
	BREQ __LSRB12R
__LSRB12L:
	LSR  R30
	DEC  R0
	BRNE __LSRB12L
__LSRB12R:
	RET

__LSRW12:
	TST  R30
	MOV  R0,R30
	MOVW R30,R26
	BREQ __LSRW12R
__LSRW12L:
	LSR  R31
	ROR  R30
	DEC  R0
	BRNE __LSRW12L
__LSRW12R:
	RET

__LSLW2:
	LSL  R30
	ROL  R31
	LSL  R30
	ROL  R31
	RET

__ASRW2:
	ASR  R31
	ROR  R30
	ASR  R31
	ROR  R30
	RET

__MULW12U:
	MUL  R31,R26
	MOV  R31,R0
	MUL  R30,R27
	ADD  R31,R0
	MUL  R30,R26
	MOV  R30,R0
	ADD  R31,R1
	RET

__GETW1P:
	LD   R30,X+
	LD   R31,X
	SBIW R26,1
	RET

__EEPROMRDB:
	SBIC EECR,EEWE
	RJMP __EEPROMRDB
	PUSH R31
	IN   R31,SREG
	CLI
	OUT  EEARL,R26
	OUT  EEARH,R27
	SBI  EECR,EERE
	IN   R30,EEDR
	OUT  SREG,R31
	POP  R31
	RET

__EEPROMWRB:
	SBIS EECR,EEWE
	RJMP __EEPROMWRB1
	WDR
	RJMP __EEPROMWRB
__EEPROMWRB1:
	IN   R25,SREG
	CLI
	OUT  EEARL,R26
	OUT  EEARH,R27
	SBI  EECR,EERE
	IN   R24,EEDR
	CP   R30,R24
	BREQ __EEPROMWRB0
	OUT  EEDR,R30
	SBI  EECR,EEMWE
	SBI  EECR,EEWE
__EEPROMWRB0:
	OUT  SREG,R25
	RET

__CPW01:
	CLR  R0
	CP   R0,R30
	CPC  R0,R31
	RET

__CPW02:
	CLR  R0
	CP   R0,R26
	CPC  R0,R27
	RET

__SAVELOCR6:
	ST   -Y,R21
__SAVELOCR5:
	ST   -Y,R20
__SAVELOCR4:
	ST   -Y,R19
__SAVELOCR3:
	ST   -Y,R18
__SAVELOCR2:
	ST   -Y,R17
	ST   -Y,R16
	RET

__LOADLOCR6:
	LDD  R21,Y+5
__LOADLOCR5:
	LDD  R20,Y+4
__LOADLOCR4:
	LDD  R19,Y+3
__LOADLOCR3:
	LDD  R18,Y+2
__LOADLOCR2:
	LDD  R17,Y+1
	LD   R16,Y
	RET

;END OF CODE MARKER
__END_OF_CODE:
